
MobotExplorer_v2.elf:     file format elf32-avr

Sections:
Idx Name          Size      VMA       LMA       File off  Algn
  0 .data         000000ec  00800100  00002038  000020cc  2**0
                  CONTENTS, ALLOC, LOAD, DATA
  1 .text         00002038  00000000  00000000  00000094  2**1
                  CONTENTS, ALLOC, LOAD, READONLY, CODE
  2 .bss          000001a7  008001ec  008001ec  000021b8  2**0
                  ALLOC
  3 .debug_aranges 000000e0  00000000  00000000  000021b8  2**0
                  CONTENTS, READONLY, DEBUGGING
  4 .debug_pubnames 00000bb8  00000000  00000000  00002298  2**0
                  CONTENTS, READONLY, DEBUGGING
  5 .debug_info   000019f6  00000000  00000000  00002e50  2**0
                  CONTENTS, READONLY, DEBUGGING
  6 .debug_abbrev 0000070f  00000000  00000000  00004846  2**0
                  CONTENTS, READONLY, DEBUGGING
  7 .debug_line   000012f2  00000000  00000000  00004f55  2**0
                  CONTENTS, READONLY, DEBUGGING
  8 .debug_frame  000003d0  00000000  00000000  00006248  2**2
                  CONTENTS, READONLY, DEBUGGING
  9 .debug_str    000006b1  00000000  00000000  00006618  2**0
                  CONTENTS, READONLY, DEBUGGING
 10 .debug_loc    00000836  00000000  00000000  00006cc9  2**0
                  CONTENTS, READONLY, DEBUGGING
 11 .debug_ranges 00000060  00000000  00000000  000074ff  2**0
                  CONTENTS, READONLY, DEBUGGING

Disassembly of section .text:

00000000 <__vectors>:
       0:	0c 94 d7 00 	jmp	0x1ae	; 0x1ae <__ctors_end>
       4:	0c 94 f6 00 	jmp	0x1ec	; 0x1ec <__bad_interrupt>
       8:	0c 94 f6 00 	jmp	0x1ec	; 0x1ec <__bad_interrupt>
       c:	0c 94 f6 00 	jmp	0x1ec	; 0x1ec <__bad_interrupt>
      10:	0c 94 f6 00 	jmp	0x1ec	; 0x1ec <__bad_interrupt>
      14:	0c 94 f6 00 	jmp	0x1ec	; 0x1ec <__bad_interrupt>
      18:	0c 94 f6 00 	jmp	0x1ec	; 0x1ec <__bad_interrupt>
      1c:	0c 94 f6 00 	jmp	0x1ec	; 0x1ec <__bad_interrupt>
      20:	0c 94 f6 00 	jmp	0x1ec	; 0x1ec <__bad_interrupt>
      24:	0c 94 f6 00 	jmp	0x1ec	; 0x1ec <__bad_interrupt>
      28:	0c 94 f6 00 	jmp	0x1ec	; 0x1ec <__bad_interrupt>
      2c:	0c 94 f6 00 	jmp	0x1ec	; 0x1ec <__bad_interrupt>
      30:	0c 94 f6 00 	jmp	0x1ec	; 0x1ec <__bad_interrupt>
      34:	0c 94 f6 00 	jmp	0x1ec	; 0x1ec <__bad_interrupt>
      38:	0c 94 f6 00 	jmp	0x1ec	; 0x1ec <__bad_interrupt>
      3c:	0c 94 14 07 	jmp	0xe28	; 0xe28 <__vector_15>
      40:	0c 94 f6 00 	jmp	0x1ec	; 0x1ec <__bad_interrupt>
      44:	0c 94 f6 00 	jmp	0x1ec	; 0x1ec <__bad_interrupt>
      48:	0c 94 d9 03 	jmp	0x7b2	; 0x7b2 <__vector_18>
      4c:	0c 94 3c 04 	jmp	0x878	; 0x878 <__vector_19>
      50:	0c 94 f6 00 	jmp	0x1ec	; 0x1ec <__bad_interrupt>
      54:	0c 94 f8 00 	jmp	0x1f0	; 0x1f0 <__vector_21>
      58:	0c 94 f6 00 	jmp	0x1ec	; 0x1ec <__bad_interrupt>
      5c:	0c 94 f6 00 	jmp	0x1ec	; 0x1ec <__bad_interrupt>
      60:	0c 94 f6 00 	jmp	0x1ec	; 0x1ec <__bad_interrupt>
      64:	0c 94 f6 00 	jmp	0x1ec	; 0x1ec <__bad_interrupt>
      68:	0c 94 f6 00 	jmp	0x1ec	; 0x1ec <__bad_interrupt>
      6c:	0c 94 f6 00 	jmp	0x1ec	; 0x1ec <__bad_interrupt>
      70:	0c 94 f6 00 	jmp	0x1ec	; 0x1ec <__bad_interrupt>
      74:	0c 94 f6 00 	jmp	0x1ec	; 0x1ec <__bad_interrupt>
      78:	0c 94 0a 04 	jmp	0x814	; 0x814 <__vector_30>
      7c:	0c 94 69 04 	jmp	0x8d2	; 0x8d2 <__vector_31>
      80:	0c 94 f6 00 	jmp	0x1ec	; 0x1ec <__bad_interrupt>
      84:	0c 94 f6 00 	jmp	0x1ec	; 0x1ec <__bad_interrupt>
      88:	0c 94 f6 00 	jmp	0x1ec	; 0x1ec <__bad_interrupt>
      8c:	07 63       	ori	r16, 0x37	; 55
      8e:	42 36       	cpi	r20, 0x62	; 98
      90:	b7 9b       	sbis	0x16, 7	; 22
      92:	d8 a7       	std	Y+40, r29	; 0x28
      94:	1a 39       	cpi	r17, 0x9A	; 154
      96:	68 56       	subi	r22, 0x68	; 104
      98:	18 ae       	std	Y+56, r1	; 0x38
      9a:	ba ab       	std	Y+50, r27	; 0x32
      9c:	55 8c       	ldd	r5, Z+29	; 0x1d
      9e:	1d 3c       	cpi	r17, 0xCD	; 205
      a0:	b7 cc       	rjmp	.-1682   	; 0xfffffa10 <__eeprom_end+0xff7efa10>
      a2:	57 63       	ori	r21, 0x37	; 55
      a4:	bd 6d       	ori	r27, 0xDD	; 221
      a6:	ed fd       	.word	0xfded	; ????
      a8:	75 3e       	cpi	r23, 0xE5	; 229
      aa:	f6 17       	cp	r31, r22
      ac:	72 31       	cpi	r23, 0x12	; 18
      ae:	bf 00       	.word	0x00bf	; ????
      b0:	00 00       	nop
      b2:	80 3f       	cpi	r24, 0xF0	; 240
      b4:	00 40       	sbci	r16, 0x00	; 0
      b6:	7a 10       	cpse	r7, r10
      b8:	f3 5a       	subi	r31, 0xA3	; 163
      ba:	00 a0       	ldd	r0, Z+32	; 0x20
      bc:	72 4e       	sbci	r23, 0xE2	; 226
      be:	18 09       	sbc	r17, r8
      c0:	00 10       	cpse	r0, r0
      c2:	a5 d4       	rcall	.+2378   	; 0xa0e <UART1_data_in_tx_buffer+0xe>
      c4:	e8 00       	.word	0x00e8	; ????
      c6:	00 e8       	ldi	r16, 0x80	; 128
      c8:	76 48       	sbci	r23, 0x86	; 134
      ca:	17 00       	.word	0x0017	; ????
      cc:	00 e4       	ldi	r16, 0x40	; 64
      ce:	0b 54       	subi	r16, 0x4B	; 75
      d0:	02 00       	.word	0x0002	; ????
      d2:	00 ca       	rjmp	.-3072   	; 0xfffff4d4 <__eeprom_end+0xff7ef4d4>
      d4:	9a 3b       	cpi	r25, 0xBA	; 186
      d6:	00 00       	nop
      d8:	00 e1       	ldi	r16, 0x10	; 16
      da:	f5 05       	cpc	r31, r5
      dc:	00 00       	nop
      de:	80 96       	adiw	r24, 0x20	; 32
      e0:	98 00       	.word	0x0098	; ????
      e2:	00 00       	nop
      e4:	40 42       	sbci	r20, 0x20	; 32
      e6:	0f 00       	.word	0x000f	; ????
      e8:	00 00       	nop
      ea:	a0 86       	std	Z+8, r10	; 0x08
      ec:	01 00       	.word	0x0001	; ????
      ee:	00 00       	nop
      f0:	10 27       	eor	r17, r16
      f2:	00 00       	nop
      f4:	00 00       	nop
      f6:	e8 03       	fmulsu	r22, r16
      f8:	00 00       	nop
      fa:	00 00       	nop
      fc:	64 00       	.word	0x0064	; ????
      fe:	00 00       	nop
     100:	00 00       	nop
     102:	0a 00       	.word	0x000a	; ????
     104:	00 00       	nop
     106:	00 00       	nop
     108:	01 00       	.word	0x0001	; ????
     10a:	00 00       	nop
     10c:	00 00       	nop
     10e:	2c 76       	andi	r18, 0x6C	; 108
     110:	d8 88       	ldd	r13, Y+16	; 0x10
     112:	dc 67       	ori	r29, 0x7C	; 124
     114:	4f 08       	sbc	r4, r15
     116:	23 df       	rcall	.-442    	; 0xffffff5e <__eeprom_end+0xff7eff5e>
     118:	c1 df       	rcall	.-126    	; 0x9c <__SREG__+0x5d>
     11a:	ae 59       	subi	r26, 0x9E	; 158
     11c:	e1 b1       	in	r30, 0x01	; 1
     11e:	b7 96       	adiw	r30, 0x27	; 39
     120:	e5 e3       	ldi	r30, 0x35	; 53
     122:	e4 53       	subi	r30, 0x34	; 52
     124:	c6 3a       	cpi	r28, 0xA6	; 166
     126:	e6 51       	subi	r30, 0x16	; 22
     128:	99 76       	andi	r25, 0x69	; 105
     12a:	96 e8       	ldi	r25, 0x86	; 134
     12c:	e6 c2       	rjmp	.+1484   	; 0x6fa <main+0x29a>
     12e:	84 26       	eor	r8, r20
     130:	eb 89       	ldd	r30, Y+19	; 0x13
     132:	8c 9b       	sbis	0x11, 4	; 17
     134:	62 ed       	ldi	r22, 0xD2	; 210
     136:	40 7c       	andi	r20, 0xC0	; 192
     138:	6f fc       	.word	0xfc6f	; ????
     13a:	ef bc       	out	0x2f, r14	; 47
     13c:	9c 9f       	mul	r25, r28
     13e:	40 f2       	brcs	.-112    	; 0xd0 <__SREG__+0x91>
     140:	ba a5       	ldd	r27, Y+42	; 0x2a
     142:	6f a5       	ldd	r22, Y+47	; 0x2f
     144:	f4 90       	lpm	r15, Z+
     146:	05 5a       	subi	r16, 0xA5	; 165
     148:	2a f7       	brpl	.-54     	; 0x114 <__SREG__+0xd5>
     14a:	5c 93       	st	X, r21
     14c:	6b 6c       	ori	r22, 0xCB	; 203
     14e:	f9 67       	ori	r31, 0x79	; 121
     150:	6d c1       	rjmp	.+730    	; 0x42c <ADC_turn_on+0x2>
     152:	1b fc       	.word	0xfc1b	; ????
     154:	e0 e4       	ldi	r30, 0x40	; 64
     156:	0d 47       	sbci	r16, 0x7D	; 125
     158:	fe f5       	brtc	.+126    	; 0x1d8 <__do_clear_bss+0x4>
     15a:	20 e6       	ldi	r18, 0x60	; 96
     15c:	b5 00       	.word	0x00b5	; ????
     15e:	d0 ed       	ldi	r29, 0xD0	; 208
     160:	90 2e       	mov	r9, r16
     162:	03 00       	.word	0x0003	; ????
     164:	94 35       	cpi	r25, 0x54	; 84
     166:	77 05       	cpc	r23, r7
     168:	00 80       	ld	r0, Z
     16a:	84 1e       	adc	r8, r20
     16c:	08 00       	.word	0x0008	; ????
     16e:	00 20       	and	r0, r0
     170:	4e 0a       	sbc	r4, r30
     172:	00 00       	nop
     174:	00 c8       	rjmp	.-4096   	; 0xfffff176 <__eeprom_end+0xff7ef176>
     176:	0c 33       	cpi	r16, 0x3C	; 60
     178:	33 33       	cpi	r19, 0x33	; 51
     17a:	33 0f       	add	r19, r19
     17c:	98 6e       	ori	r25, 0xE8	; 232
     17e:	12 83       	std	Z+2, r17	; 0x02
     180:	11 41       	sbci	r17, 0x11	; 17
     182:	ef 8d       	ldd	r30, Y+31	; 0x1f
     184:	21 14       	cp	r2, r1
     186:	89 3b       	cpi	r24, 0xB9	; 185
     188:	e6 55       	subi	r30, 0x56	; 86
     18a:	16 cf       	rjmp	.-468    	; 0xffffffb8 <__eeprom_end+0xff7effb8>
     18c:	fe e6       	ldi	r31, 0x6E	; 110
     18e:	db 18       	sub	r13, r11
     190:	d1 84       	ldd	r13, Z+9	; 0x09
     192:	4b 38       	cpi	r20, 0x8B	; 139
     194:	1b f7       	brvc	.-58     	; 0x15c <__SREG__+0x11d>
     196:	7c 1d       	adc	r23, r12
     198:	90 1d       	adc	r25, r0
     19a:	a4 bb       	out	0x14, r26	; 20
     19c:	e4 24       	eor	r14, r4
     19e:	20 32       	cpi	r18, 0x20	; 32
     1a0:	84 72       	andi	r24, 0x24	; 36
     1a2:	5e 22       	and	r5, r30
     1a4:	81 00       	.word	0x0081	; ????
     1a6:	c9 f1       	breq	.+114    	; 0x21a <__vector_21+0x2a>
     1a8:	24 ec       	ldi	r18, 0xC4	; 196
     1aa:	a1 e5       	ldi	r26, 0x51	; 81
     1ac:	3d 27       	eor	r19, r29

000001ae <__ctors_end>:
     1ae:	11 24       	eor	r1, r1
     1b0:	1f be       	out	0x3f, r1	; 63
     1b2:	cf ef       	ldi	r28, 0xFF	; 255
     1b4:	d0 e1       	ldi	r29, 0x10	; 16
     1b6:	de bf       	out	0x3e, r29	; 62
     1b8:	cd bf       	out	0x3d, r28	; 61

000001ba <__do_copy_data>:
     1ba:	11 e0       	ldi	r17, 0x01	; 1
     1bc:	a0 e0       	ldi	r26, 0x00	; 0
     1be:	b1 e0       	ldi	r27, 0x01	; 1
     1c0:	e8 e3       	ldi	r30, 0x38	; 56
     1c2:	f0 e2       	ldi	r31, 0x20	; 32
     1c4:	00 e0       	ldi	r16, 0x00	; 0
     1c6:	0b bf       	out	0x3b, r16	; 59
     1c8:	02 c0       	rjmp	.+4      	; 0x1ce <__do_copy_data+0x14>
     1ca:	07 90       	elpm	r0, Z+
     1cc:	0d 92       	st	X+, r0
     1ce:	ac 3e       	cpi	r26, 0xEC	; 236
     1d0:	b1 07       	cpc	r27, r17
     1d2:	d9 f7       	brne	.-10     	; 0x1ca <__do_copy_data+0x10>

000001d4 <__do_clear_bss>:
     1d4:	13 e0       	ldi	r17, 0x03	; 3
     1d6:	ac ee       	ldi	r26, 0xEC	; 236
     1d8:	b1 e0       	ldi	r27, 0x01	; 1
     1da:	01 c0       	rjmp	.+2      	; 0x1de <.do_clear_bss_start>

000001dc <.do_clear_bss_loop>:
     1dc:	1d 92       	st	X+, r1

000001de <.do_clear_bss_start>:
     1de:	a3 39       	cpi	r26, 0x93	; 147
     1e0:	b1 07       	cpc	r27, r17
     1e2:	e1 f7       	brne	.-8      	; 0x1dc <.do_clear_bss_loop>
     1e4:	0e 94 30 02 	call	0x460	; 0x460 <main>
     1e8:	0c 94 1a 10 	jmp	0x2034	; 0x2034 <_exit>

000001ec <__bad_interrupt>:
     1ec:	0c 94 00 00 	jmp	0	; 0x0 <__vectors>

000001f0 <__vector_21>:
z czestotliwoscia ok 122Hz (ok. 8ms)
*******************************************************************************/
#include "main.h"

ISR(ADC_vect) //Przerwanie ADC Conversion Complete
{
     1f0:	1f 92       	push	r1
     1f2:	0f 92       	push	r0
     1f4:	0f b6       	in	r0, 0x3f	; 63
     1f6:	0f 92       	push	r0
     1f8:	0b b6       	in	r0, 0x3b	; 59
     1fa:	0f 92       	push	r0
     1fc:	11 24       	eor	r1, r1
     1fe:	2f 93       	push	r18
     200:	3f 93       	push	r19
     202:	4f 93       	push	r20
     204:	5f 93       	push	r21
     206:	6f 93       	push	r22
     208:	7f 93       	push	r23
     20a:	8f 93       	push	r24
     20c:	9f 93       	push	r25
     20e:	af 93       	push	r26
     210:	bf 93       	push	r27
     212:	ef 93       	push	r30
     214:	ff 93       	push	r31
	static signed int pomiar=0;
	static unsigned char ADC_channel = POMIAR_M1;
	static unsigned char ile_pomiarow = ADC_ILOSC_POMIAROW;

	switch(ADC_channel)
     216:	80 91 01 01 	lds	r24, 0x0101
     21a:	82 30       	cpi	r24, 0x02	; 2
     21c:	09 f4       	brne	.+2      	; 0x220 <__vector_21+0x30>
     21e:	43 c0       	rjmp	.+134    	; 0x2a6 <__vector_21+0xb6>
     220:	83 30       	cpi	r24, 0x03	; 3
     222:	20 f4       	brcc	.+8      	; 0x22c <__vector_21+0x3c>
     224:	81 30       	cpi	r24, 0x01	; 1
     226:	09 f0       	breq	.+2      	; 0x22a <__vector_21+0x3a>
     228:	e4 c0       	rjmp	.+456    	; 0x3f2 <__vector_21+0x202>
     22a:	07 c0       	rjmp	.+14     	; 0x23a <__vector_21+0x4a>
     22c:	83 30       	cpi	r24, 0x03	; 3
     22e:	09 f4       	brne	.+2      	; 0x232 <__vector_21+0x42>
     230:	70 c0       	rjmp	.+224    	; 0x312 <__vector_21+0x122>
     232:	84 30       	cpi	r24, 0x04	; 4
     234:	09 f0       	breq	.+2      	; 0x238 <__vector_21+0x48>
     236:	dd c0       	rjmp	.+442    	; 0x3f2 <__vector_21+0x202>
     238:	a2 c0       	rjmp	.+324    	; 0x37e <__vector_21+0x18e>
	{
		case POMIAR_M1:
		{
			pomiar += ADC;
     23a:	24 b1       	in	r18, 0x04	; 4
     23c:	35 b1       	in	r19, 0x05	; 5
     23e:	80 91 ec 01 	lds	r24, 0x01EC
     242:	90 91 ed 01 	lds	r25, 0x01ED
     246:	28 0f       	add	r18, r24
     248:	39 1f       	adc	r19, r25
     24a:	30 93 ed 01 	sts	0x01ED, r19
     24e:	20 93 ec 01 	sts	0x01EC, r18
			if(--ile_pomiarow == 0)
     252:	80 91 00 01 	lds	r24, 0x0100
     256:	81 50       	subi	r24, 0x01	; 1
     258:	80 93 00 01 	sts	0x0100, r24
     25c:	88 23       	and	r24, r24
     25e:	09 f0       	breq	.+2      	; 0x262 <__vector_21+0x72>
     260:	c8 c0       	rjmp	.+400    	; 0x3f2 <__vector_21+0x202>
Opis:
	Wylaczenie (calkowite) przetwornika ADC
*******************************************************************************/
inline void ADC_turn_off(void)
{
	ADCSRA &= ~(1<<ADEN);
     262:	37 98       	cbi	0x06, 7	; 6
		{
			pomiar += ADC;
			if(--ile_pomiarow == 0)
			{
				ADC_turn_off(); //ma na celu upewnienie sie ze nastepny wynik konwersji nie bedzie dotyczyl poprzednigo kanalu ADC
				ADC_channel = POMIAR_M2;
     264:	82 e0       	ldi	r24, 0x02	; 2
     266:	80 93 01 01 	sts	0x0101, r24
				ile_pomiarow = ADC_ILOSC_POMIAROW;
     26a:	80 e1       	ldi	r24, 0x10	; 16
     26c:	80 93 00 01 	sts	0x0100, r24
				
                //wejscie roznicowe pomiaru pradu M2 (ADC3-ADC2), wzmocnienie 10
				ADMUX = (1<<REFS0)| 0b01101 ;
     270:	8d e4       	ldi	r24, 0x4D	; 77
     272:	87 b9       	out	0x07, r24	; 7
				
                uint_global_prad_M1 = 3.68*(pomiar >> 4);//wyliczenie sredniej, przesuniecie w prawo o 4 bity jest rownowazne dzieleniu przez 16
     274:	54 e0       	ldi	r21, 0x04	; 4
     276:	35 95       	asr	r19
     278:	27 95       	ror	r18
     27a:	5a 95       	dec	r21
     27c:	e1 f7       	brne	.-8      	; 0x276 <__vector_21+0x86>
     27e:	b9 01       	movw	r22, r18
     280:	88 27       	eor	r24, r24
     282:	77 fd       	sbrc	r23, 7
     284:	80 95       	com	r24
     286:	98 2f       	mov	r25, r24
     288:	0e 94 80 0b 	call	0x1700	; 0x1700 <__floatsisf>
     28c:	2f e1       	ldi	r18, 0x1F	; 31
     28e:	35 e8       	ldi	r19, 0x85	; 133
     290:	4b e6       	ldi	r20, 0x6B	; 107
     292:	50 e4       	ldi	r21, 0x40	; 64
     294:	0e 94 a1 0c 	call	0x1942	; 0x1942 <__mulsf3>
     298:	0e 94 52 0b 	call	0x16a4	; 0x16a4 <__fixunssfsi>
     29c:	70 93 84 03 	sts	0x0384, r23
     2a0:	60 93 83 03 	sts	0x0383, r22
     2a4:	a0 c0       	rjmp	.+320    	; 0x3e6 <__vector_21+0x1f6>
			}
			break;
		}
		case POMIAR_M2:
		{
			pomiar += ADC;
     2a6:	24 b1       	in	r18, 0x04	; 4
     2a8:	35 b1       	in	r19, 0x05	; 5
     2aa:	80 91 ec 01 	lds	r24, 0x01EC
     2ae:	90 91 ed 01 	lds	r25, 0x01ED
     2b2:	28 0f       	add	r18, r24
     2b4:	39 1f       	adc	r19, r25
     2b6:	30 93 ed 01 	sts	0x01ED, r19
     2ba:	20 93 ec 01 	sts	0x01EC, r18
			if(--ile_pomiarow == 0)
     2be:	80 91 00 01 	lds	r24, 0x0100
     2c2:	81 50       	subi	r24, 0x01	; 1
     2c4:	80 93 00 01 	sts	0x0100, r24
     2c8:	88 23       	and	r24, r24
     2ca:	09 f0       	breq	.+2      	; 0x2ce <__vector_21+0xde>
     2cc:	92 c0       	rjmp	.+292    	; 0x3f2 <__vector_21+0x202>
Opis:
	Wylaczenie (calkowite) przetwornika ADC
*******************************************************************************/
inline void ADC_turn_off(void)
{
	ADCSRA &= ~(1<<ADEN);
     2ce:	37 98       	cbi	0x06, 7	; 6
		{
			pomiar += ADC;
			if(--ile_pomiarow == 0)
			{
				ADC_turn_off(); //ma na celu upewnienie sie zenastepny wynik nie bedzi dotyczyl poprzedniego kanalu ADC
				ADC_channel = POMIAR_M3;
     2d0:	83 e0       	ldi	r24, 0x03	; 3
     2d2:	80 93 01 01 	sts	0x0101, r24
				ile_pomiarow = ADC_ILOSC_POMIAROW;
     2d6:	80 e1       	ldi	r24, 0x10	; 16
     2d8:	80 93 00 01 	sts	0x0100, r24
				
				//wejscie (sdingle ended) pomiaru pradu M3 (ADC4)
                ADMUX = (1<<REFS0) | 0b00100 ;
     2dc:	84 e4       	ldi	r24, 0x44	; 68
     2de:	87 b9       	out	0x07, r24	; 7
				
                uint_global_prad_M2 = 3.68*(pomiar >> 4);//wyliczenie sredniej, przesuniecie w prawo o 4 bity jest rownowazne dzieleniu przez 16
     2e0:	44 e0       	ldi	r20, 0x04	; 4
     2e2:	35 95       	asr	r19
     2e4:	27 95       	ror	r18
     2e6:	4a 95       	dec	r20
     2e8:	e1 f7       	brne	.-8      	; 0x2e2 <__vector_21+0xf2>
     2ea:	b9 01       	movw	r22, r18
     2ec:	88 27       	eor	r24, r24
     2ee:	77 fd       	sbrc	r23, 7
     2f0:	80 95       	com	r24
     2f2:	98 2f       	mov	r25, r24
     2f4:	0e 94 80 0b 	call	0x1700	; 0x1700 <__floatsisf>
     2f8:	2f e1       	ldi	r18, 0x1F	; 31
     2fa:	35 e8       	ldi	r19, 0x85	; 133
     2fc:	4b e6       	ldi	r20, 0x6B	; 107
     2fe:	50 e4       	ldi	r21, 0x40	; 64
     300:	0e 94 a1 0c 	call	0x1942	; 0x1942 <__mulsf3>
     304:	0e 94 52 0b 	call	0x16a4	; 0x16a4 <__fixunssfsi>
     308:	70 93 87 03 	sts	0x0387, r23
     30c:	60 93 86 03 	sts	0x0386, r22
     310:	6a c0       	rjmp	.+212    	; 0x3e6 <__vector_21+0x1f6>
			}
			break;
		}
		case POMIAR_M3:
		{
			pomiar += ADC;
     312:	24 b1       	in	r18, 0x04	; 4
     314:	35 b1       	in	r19, 0x05	; 5
     316:	80 91 ec 01 	lds	r24, 0x01EC
     31a:	90 91 ed 01 	lds	r25, 0x01ED
     31e:	28 0f       	add	r18, r24
     320:	39 1f       	adc	r19, r25
     322:	30 93 ed 01 	sts	0x01ED, r19
     326:	20 93 ec 01 	sts	0x01EC, r18
			if(--ile_pomiarow == 0)
     32a:	80 91 00 01 	lds	r24, 0x0100
     32e:	81 50       	subi	r24, 0x01	; 1
     330:	80 93 00 01 	sts	0x0100, r24
     334:	88 23       	and	r24, r24
     336:	09 f0       	breq	.+2      	; 0x33a <__vector_21+0x14a>
     338:	5c c0       	rjmp	.+184    	; 0x3f2 <__vector_21+0x202>
Opis:
	Wylaczenie (calkowite) przetwornika ADC
*******************************************************************************/
inline void ADC_turn_off(void)
{
	ADCSRA &= ~(1<<ADEN);
     33a:	37 98       	cbi	0x06, 7	; 6
		{
			pomiar += ADC;
			if(--ile_pomiarow == 0)
			{
				ADC_turn_off(); //ma na celu upewnienie sie zenastepny wynik nie bedzi dotyczyl poprzedniego kanalu ADC
				ADC_channel = POMIAR_M4;
     33c:	84 e0       	ldi	r24, 0x04	; 4
     33e:	80 93 01 01 	sts	0x0101, r24
				ile_pomiarow = ADC_ILOSC_POMIAROW;
     342:	80 e1       	ldi	r24, 0x10	; 16
     344:	80 93 00 01 	sts	0x0100, r24
								
                //wejscie (sdingle ended) pomiaru pradu M4 (ADC5)
                ADMUX = (1<<REFS0) | 0b00101 ;
     348:	85 e4       	ldi	r24, 0x45	; 69
     34a:	87 b9       	out	0x07, r24	; 7
                
				uint_global_prad_M3 = 0.6745*(pomiar >> 4);//wyliczenie sredniej, przesuniecie w prawo o 4 bity jest rownowazne dzieleniu przez 16
     34c:	94 e0       	ldi	r25, 0x04	; 4
     34e:	35 95       	asr	r19
     350:	27 95       	ror	r18
     352:	9a 95       	dec	r25
     354:	e1 f7       	brne	.-8      	; 0x34e <__vector_21+0x15e>
     356:	b9 01       	movw	r22, r18
     358:	88 27       	eor	r24, r24
     35a:	77 fd       	sbrc	r23, 7
     35c:	80 95       	com	r24
     35e:	98 2f       	mov	r25, r24
     360:	0e 94 80 0b 	call	0x1700	; 0x1700 <__floatsisf>
     364:	28 e0       	ldi	r18, 0x08	; 8
     366:	3c ea       	ldi	r19, 0xAC	; 172
     368:	4c e2       	ldi	r20, 0x2C	; 44
     36a:	5f e3       	ldi	r21, 0x3F	; 63
     36c:	0e 94 a1 0c 	call	0x1942	; 0x1942 <__mulsf3>
     370:	0e 94 52 0b 	call	0x16a4	; 0x16a4 <__fixunssfsi>
     374:	70 93 91 03 	sts	0x0391, r23
     378:	60 93 90 03 	sts	0x0390, r22
     37c:	34 c0       	rjmp	.+104    	; 0x3e6 <__vector_21+0x1f6>
			}
			break;
		}		
		case POMIAR_M4:
		{
			pomiar += ADC;
     37e:	24 b1       	in	r18, 0x04	; 4
     380:	35 b1       	in	r19, 0x05	; 5
     382:	80 91 ec 01 	lds	r24, 0x01EC
     386:	90 91 ed 01 	lds	r25, 0x01ED
     38a:	28 0f       	add	r18, r24
     38c:	39 1f       	adc	r19, r25
     38e:	30 93 ed 01 	sts	0x01ED, r19
     392:	20 93 ec 01 	sts	0x01EC, r18
			if(--ile_pomiarow == 0)
     396:	80 91 00 01 	lds	r24, 0x0100
     39a:	81 50       	subi	r24, 0x01	; 1
     39c:	80 93 00 01 	sts	0x0100, r24
     3a0:	88 23       	and	r24, r24
     3a2:	39 f5       	brne	.+78     	; 0x3f2 <__vector_21+0x202>
Opis:
	Wylaczenie (calkowite) przetwornika ADC
*******************************************************************************/
inline void ADC_turn_off(void)
{
	ADCSRA &= ~(1<<ADEN);
     3a4:	37 98       	cbi	0x06, 7	; 6
		{
			pomiar += ADC;
			if(--ile_pomiarow == 0)
			{
				ADC_turn_off(); //ma na celu upewnienie sie zenastepny wynik nie bedzi dotyczyl poprzedniego kanalu ADC
				ADC_channel = POMIAR_M1;
     3a6:	81 e0       	ldi	r24, 0x01	; 1
     3a8:	80 93 01 01 	sts	0x0101, r24
				ile_pomiarow = ADC_ILOSC_POMIAROW;
     3ac:	80 e1       	ldi	r24, 0x10	; 16
     3ae:	80 93 00 01 	sts	0x0100, r24
				
				//wejscie roznicowe pomiaru pradu M1 (ADC1-ADC0), wzmocnienie 10
				ADMUX = (1<<REFS0) | 0b01001 ;				
     3b2:	89 e4       	ldi	r24, 0x49	; 73
     3b4:	87 b9       	out	0x07, r24	; 7
				
				uint_global_prad_M4 = 0.6745*(pomiar >> 4);//wyliczenie sredniej, przesuniecie w prawo o 4 bity jest rownowazne dzieleniu przez 16
     3b6:	84 e0       	ldi	r24, 0x04	; 4
     3b8:	35 95       	asr	r19
     3ba:	27 95       	ror	r18
     3bc:	8a 95       	dec	r24
     3be:	e1 f7       	brne	.-8      	; 0x3b8 <__vector_21+0x1c8>
     3c0:	b9 01       	movw	r22, r18
     3c2:	88 27       	eor	r24, r24
     3c4:	77 fd       	sbrc	r23, 7
     3c6:	80 95       	com	r24
     3c8:	98 2f       	mov	r25, r24
     3ca:	0e 94 80 0b 	call	0x1700	; 0x1700 <__floatsisf>
     3ce:	28 e0       	ldi	r18, 0x08	; 8
     3d0:	3c ea       	ldi	r19, 0xAC	; 172
     3d2:	4c e2       	ldi	r20, 0x2C	; 44
     3d4:	5f e3       	ldi	r21, 0x3F	; 63
     3d6:	0e 94 a1 0c 	call	0x1942	; 0x1942 <__mulsf3>
     3da:	0e 94 52 0b 	call	0x16a4	; 0x16a4 <__fixunssfsi>
     3de:	70 93 8b 03 	sts	0x038B, r23
     3e2:	60 93 8a 03 	sts	0x038A, r22
                										//wynik wyskalowany tak zeby byl w mA
				pomiar=0;
     3e6:	10 92 ed 01 	sts	0x01ED, r1
     3ea:	10 92 ec 01 	sts	0x01EC, r1
Opis:
	Funkcja wlacza przetwornik ADC, nie rozpoczynajac konwersji
*******************************************************************************/
inline void ADC_turn_on(void)
{
	ADCSRA |= (1<<ADEN);
     3ee:	37 9a       	sbi	0x06, 7	; 6
Opis:
	Rozpoczyna pierwsza konwersje, po wlaczeniu przetwornika ADC
*******************************************************************************/
inline void ADC_start_conversion(void)
{
	ADCSRA|=(1<<ADSC);
     3f0:	36 9a       	sbi	0x06, 6	; 6
			}
			break;
		}
		
	}
}// koniec obslugi przerwania ADC Conversion Complete
     3f2:	ff 91       	pop	r31
     3f4:	ef 91       	pop	r30
     3f6:	bf 91       	pop	r27
     3f8:	af 91       	pop	r26
     3fa:	9f 91       	pop	r25
     3fc:	8f 91       	pop	r24
     3fe:	7f 91       	pop	r23
     400:	6f 91       	pop	r22
     402:	5f 91       	pop	r21
     404:	4f 91       	pop	r20
     406:	3f 91       	pop	r19
     408:	2f 91       	pop	r18
     40a:	0f 90       	pop	r0
     40c:	0b be       	out	0x3b, r0	; 59
     40e:	0f 90       	pop	r0
     410:	0f be       	out	0x3f, r0	; 63
     412:	0f 90       	pop	r0
     414:	1f 90       	pop	r1
     416:	18 95       	reti

00000418 <ADC_init>:
	Inicjalizacja przetwornika ADC, wybor zrodla odniesienia, wlaczenie przerwan, 
autowyzwalanie i konfiguracja zegara ADC oraz w³¹czenie przetwornika
*******************************************************************************/
void ADC_init(void)
{
	ADMUX|=(1<<REFS0);    //napiecie ref AVCC
     418:	3e 9a       	sbi	0x07, 6	; 7
	
    ADCSRA|=(1<<ADEN)|(1<<ADFR)|(1<<ADIE)|(1<<ADPS2)|(1<<ADPS1)|(1<<ADPS0);
     41a:	86 b1       	in	r24, 0x06	; 6
     41c:	8f 6a       	ori	r24, 0xAF	; 175
     41e:	86 b9       	out	0x06, r24	; 6
	//preskaler 128 - 125kHz@16MHz, wlaczone przerwania, konwersja caigla
}
     420:	08 95       	ret

00000422 <ADC_start_conversion>:
Opis:
	Rozpoczyna pierwsza konwersje, po wlaczeniu przetwornika ADC
*******************************************************************************/
inline void ADC_start_conversion(void)
{
	ADCSRA|=(1<<ADSC);
     422:	36 9a       	sbi	0x06, 6	; 6
}
     424:	08 95       	ret

00000426 <ADC_turn_off>:
Opis:
	Wylaczenie (calkowite) przetwornika ADC
*******************************************************************************/
inline void ADC_turn_off(void)
{
	ADCSRA &= ~(1<<ADEN);
     426:	37 98       	cbi	0x06, 7	; 6
}
     428:	08 95       	ret

0000042a <ADC_turn_on>:
Opis:
	Funkcja wlacza przetwornik ADC, nie rozpoczynajac konwersji
*******************************************************************************/
inline void ADC_turn_on(void)
{
	ADCSRA |= (1<<ADEN);
     42a:	37 9a       	sbi	0x06, 7	; 6
}
     42c:	08 95       	ret

0000042e <ioinit>:
Opis:
	Wstepna Inicjalizacja wejsc/wyjsc
*******************************************************************************/
void ioinit(void)
{
	M1_DDR |= (1<<M1_IN1)|(1<<M1_IN2)|(1<<M2_IN1)|(1<<M2_IN2); //jako wyjscia
     42e:	8a b3       	in	r24, 0x1a	; 26
     430:	88 67       	ori	r24, 0x78	; 120
     432:	8a bb       	out	0x1a, r24	; 26
	M1_P_DDR |= (1<<M1_P)|(1<<M2_P); //piny od PWMa jako wyjscia
     434:	82 b1       	in	r24, 0x02	; 2
     436:	88 61       	ori	r24, 0x18	; 24
     438:	82 b9       	out	0x02, r24	; 2

	PG3_SLEEP_DDR |= (1<<PG3_SLEEP); //jako wyjscie
     43a:	e4 e6       	ldi	r30, 0x64	; 100
     43c:	f0 e0       	ldi	r31, 0x00	; 0
     43e:	80 81       	ld	r24, Z
     440:	88 60       	ori	r24, 0x08	; 8
     442:	80 83       	st	Z, r24
	PG3_SLEEP_PORT &= ~(1<<PG3_SLEEP); //uspienie silnikow	
     444:	e5 e6       	ldi	r30, 0x65	; 101
     446:	f0 e0       	ldi	r31, 0x00	; 0
     448:	80 81       	ld	r24, Z
     44a:	87 7f       	andi	r24, 0xF7	; 247
     44c:	80 83       	st	Z, r24
	FS_AB_DDR &= ~(1<<FS_AB);  //pinod FS jako wejscie	
     44e:	a2 98       	cbi	0x14, 2	; 20
	
	LED1_DDR |= (1<<LED1)|(1<<LED2); //jako wyjscia
     450:	81 b3       	in	r24, 0x11	; 17
     452:	80 6c       	ori	r24, 0xC0	; 192
     454:	81 bb       	out	0x11, r24	; 17
	
	PIR2_DDR &= ~(1<<PIR2);
     456:	b9 98       	cbi	0x17, 1	; 23
	PIR1_DDR &= ~(1<<PIR1);
     458:	b8 98       	cbi	0x17, 0	; 23
	
	DDRF = 0x00; //caly port jako wejscie (konieczne gdy uzywamy ADC)
     45a:	10 92 61 00 	sts	0x0061, r1
}
     45e:	08 95       	ret

00000460 <main>:
	- brak
Opis:
	Glowna funkcja programu
*******************************************************************************/
int main(void)
{
     460:	2f 92       	push	r2
     462:	3f 92       	push	r3
     464:	4f 92       	push	r4
     466:	5f 92       	push	r5
     468:	6f 92       	push	r6
     46a:	7f 92       	push	r7
     46c:	8f 92       	push	r8
     46e:	9f 92       	push	r9
     470:	af 92       	push	r10
     472:	bf 92       	push	r11
     474:	cf 92       	push	r12
     476:	df 92       	push	r13
     478:	ef 92       	push	r14
     47a:	ff 92       	push	r15
     47c:	0f 93       	push	r16
     47e:	1f 93       	push	r17
     480:	df 93       	push	r29
     482:	cf 93       	push	r28
     484:	cd b7       	in	r28, 0x3d	; 61
     486:	de b7       	in	r29, 0x3e	; 62
     488:	c0 55       	subi	r28, 0x50	; 80
     48a:	d0 40       	sbci	r29, 0x00	; 0
     48c:	0f b6       	in	r0, 0x3f	; 63
     48e:	f8 94       	cli
     490:	de bf       	out	0x3e, r29	; 62
     492:	0f be       	out	0x3f, r0	; 63
     494:	cd bf       	out	0x3d, r28	; 61
	float ultrasonics_normalized[2];
	int pir_l;
	int pir_r;
    int itmp;
	    
    ioinit();	
     496:	0e 94 17 02 	call	0x42e	; 0x42e <ioinit>
	UART0_init();					  
     49a:	0e 94 a9 03 	call	0x752	; 0x752 <UART0_init>
    TIMER_init();
     49e:	0e 94 47 07 	call	0xe8e	; 0xe8e <TIMER_init>
    MOTOR_init();
     4a2:	0e 94 af 06 	call	0xd5e	; 0xd5e <MOTOR_init>
    ADC_init();
     4a6:	0e 94 0c 02 	call	0x418	; 0x418 <ADC_init>
	init_sonar();
     4aa:	0e 94 5a 07 	call	0xeb4	; 0xeb4 <init_sonar>
    sei();	//globalne wlaczenie przerwan
     4ae:	78 94       	sei
	
	//uint32_t distance = 0;
    
	ADC_start_conversion();
     4b0:	0e 94 11 02 	call	0x422	; 0x422 <ADC_start_conversion>
	
	UART0_print("UART0 test\r\n");
     4b4:	82 e0       	ldi	r24, 0x02	; 2
     4b6:	91 e0       	ldi	r25, 0x01	; 1
     4b8:	0e 94 95 05 	call	0xb2a	; 0xb2a <UART0_print>
	LED2_OFF;
     4bc:	96 9a       	sbi	0x12, 6	; 18
								UART0_print("Janusz2");
							}
						break;
					case 'u':
						UART0_print("Ultrasonic: ");
						read_sonar(ultrasonics);
     4be:	91 e1       	ldi	r25, 0x11	; 17
     4c0:	29 2e       	mov	r2, r25
     4c2:	31 2c       	mov	r3, r1
     4c4:	2c 0e       	add	r2, r28
     4c6:	3d 1e       	adc	r3, r29
	UART0_print("UART0 test\r\n");
	LED2_OFF;
	
	for(;;) //glowna petla programu
	{
		if(UART0_data_in_rx_buffer())
     4c8:	0e 94 e5 04 	call	0x9ca	; 0x9ca <UART0_data_in_rx_buffer>
     4cc:	88 23       	and	r24, r24
     4ce:	e1 f3       	breq	.-8      	; 0x4c8 <main+0x68>
		{
			switch(rcv = UART0_receive_byte()){
     4d0:	0e 94 9b 04 	call	0x936	; 0x936 <UART0_receive_byte>
     4d4:	82 37       	cpi	r24, 0x72	; 114
     4d6:	b9 f1       	breq	.+110    	; 0x546 <main+0xe6>
     4d8:	83 37       	cpi	r24, 0x73	; 115
     4da:	68 f4       	brcc	.+26     	; 0x4f6 <main+0x96>
     4dc:	8c 36       	cpi	r24, 0x6C	; 108
     4de:	c1 f1       	breq	.+112    	; 0x550 <main+0xf0>
     4e0:	8d 36       	cpi	r24, 0x6D	; 109
     4e2:	18 f4       	brcc	.+6      	; 0x4ea <main+0x8a>
     4e4:	82 36       	cpi	r24, 0x62	; 98
     4e6:	81 f7       	brne	.-32     	; 0x4c8 <main+0x68>
     4e8:	28 c0       	rjmp	.+80     	; 0x53a <main+0xda>
     4ea:	8d 36       	cpi	r24, 0x6D	; 109
     4ec:	09 f4       	brne	.+2      	; 0x4f0 <main+0x90>
     4ee:	00 c1       	rjmp	.+512    	; 0x6f0 <main+0x290>
     4f0:	8e 36       	cpi	r24, 0x6E	; 110
     4f2:	51 f7       	brne	.-44     	; 0x4c8 <main+0x68>
     4f4:	32 c0       	rjmp	.+100    	; 0x55a <main+0xfa>
     4f6:	85 37       	cpi	r24, 0x75	; 117
     4f8:	09 f4       	brne	.+2      	; 0x4fc <main+0x9c>
     4fa:	ff c0       	rjmp	.+510    	; 0x6fa <main+0x29a>
     4fc:	86 37       	cpi	r24, 0x76	; 118
     4fe:	18 f4       	brcc	.+6      	; 0x506 <main+0xa6>
     500:	83 37       	cpi	r24, 0x73	; 115
     502:	11 f7       	brne	.-60     	; 0x4c8 <main+0x68>
     504:	1d c0       	rjmp	.+58     	; 0x540 <main+0xe0>
     506:	86 37       	cpi	r24, 0x76	; 118
     508:	19 f0       	breq	.+6      	; 0x510 <main+0xb0>
     50a:	89 37       	cpi	r24, 0x79	; 121
     50c:	e9 f6       	brne	.-70     	; 0x4c8 <main+0x68>
     50e:	08 c1       	rjmp	.+528    	; 0x720 <main+0x2c0>
				case 'v':
						UART0_print("Podaj nowa predkosc (-255 - 255): ");
     510:	8f e0       	ldi	r24, 0x0F	; 15
     512:	91 e0       	ldi	r25, 0x01	; 1
     514:	0e 94 95 05 	call	0xb2a	; 0xb2a <UART0_print>
						UART0_gets(tmp,8);
     518:	ce 01       	movw	r24, r28
     51a:	01 96       	adiw	r24, 0x01	; 1
     51c:	68 e0       	ldi	r22, 0x08	; 8
     51e:	0e 94 db 05 	call	0xbb6	; 0xbb6 <UART0_gets>
						itmp = atoi(tmp);
     522:	ce 01       	movw	r24, r28
     524:	01 96       	adiw	r24, 0x01	; 1
     526:	0e 94 55 0d 	call	0x1aaa	; 0x1aaa <atoi>
     52a:	8c 01       	movw	r16, r24
						UART0_print("\r\n");
     52c:	82 e3       	ldi	r24, 0x32	; 50
     52e:	91 e0       	ldi	r25, 0x01	; 1
     530:	0e 94 95 05 	call	0xb2a	; 0xb2a <UART0_print>
						MOTOR_drive(itmp,itmp);
     534:	c8 01       	movw	r24, r16
     536:	b8 01       	movw	r22, r16
     538:	d8 c0       	rjmp	.+432    	; 0x6ea <main+0x28a>
						break;		
					case 'b':
						MOTOR_break();						
     53a:	0e 94 03 07 	call	0xe06	; 0xe06 <MOTOR_break>
     53e:	c4 cf       	rjmp	.-120    	; 0x4c8 <main+0x68>
						break;
					case 's':
						MOTOR_sleep();
     540:	0e 94 0e 07 	call	0xe1c	; 0xe1c <MOTOR_sleep>
     544:	c1 cf       	rjmp	.-126    	; 0x4c8 <main+0x68>
						break;
					case 'r':
						MOTOR_drive(255,0);
     546:	8f ef       	ldi	r24, 0xFF	; 255
     548:	90 e0       	ldi	r25, 0x00	; 0
     54a:	60 e0       	ldi	r22, 0x00	; 0
     54c:	70 e0       	ldi	r23, 0x00	; 0
     54e:	cd c0       	rjmp	.+410    	; 0x6ea <main+0x28a>
						break;				
					case 'l':
						MOTOR_drive(0,255);
     550:	80 e0       	ldi	r24, 0x00	; 0
     552:	90 e0       	ldi	r25, 0x00	; 0
     554:	6f ef       	ldi	r22, 0xFF	; 255
     556:	70 e0       	ldi	r23, 0x00	; 0
     558:	c8 c0       	rjmp	.+400    	; 0x6ea <main+0x28a>
						break;
					case 'n':
						ultrasonics[0] = 0;
     55a:	19 8a       	std	Y+17, r1	; 0x11
     55c:	1a 8a       	std	Y+18, r1	; 0x12
     55e:	1b 8a       	std	Y+19, r1	; 0x13
     560:	1c 8a       	std	Y+20, r1	; 0x14
						ultrasonics[1] = 0;
     562:	1d 8a       	std	Y+21, r1	; 0x15
     564:	1e 8a       	std	Y+22, r1	; 0x16
     566:	1f 8a       	std	Y+23, r1	; 0x17
     568:	18 8e       	std	Y+24, r1	; 0x18
						read_sonar(ultrasonics);
     56a:	c1 01       	movw	r24, r2
     56c:	0e 94 79 07 	call	0xef2	; 0xef2 <read_sonar>
						char lf[10];
						char rgt[10];
						char out[10];
						char out1[10];
						
						if((PINB & (1<<PIR2)))            // check for sensor pin PC.0 using bit
     570:	16 b3       	in	r17, 0x16	; 22
						{
							pir_l = 1;
						}
						
						if((PINB & (1<<PIR1)))            // check for sensor pin PC.0 using bit
     572:	06 b3       	in	r16, 0x16	; 22
						{
							pir_r = 1;
						}
						
						if(ultrasonics[0] > 100)            // check for sensor pin PC.0 using bit
     574:	89 89       	ldd	r24, Y+17	; 0x11
     576:	9a 89       	ldd	r25, Y+18	; 0x12
     578:	ab 89       	ldd	r26, Y+19	; 0x13
     57a:	bc 89       	ldd	r27, Y+20	; 0x14
     57c:	85 36       	cpi	r24, 0x65	; 101
     57e:	91 05       	cpc	r25, r1
     580:	a1 05       	cpc	r26, r1
     582:	b1 05       	cpc	r27, r1
     584:	40 f0       	brcs	.+16     	; 0x596 <main+0x136>
						{
							ultrasonics[0] = 100;
     586:	84 e6       	ldi	r24, 0x64	; 100
     588:	90 e0       	ldi	r25, 0x00	; 0
     58a:	a0 e0       	ldi	r26, 0x00	; 0
     58c:	b0 e0       	ldi	r27, 0x00	; 0
     58e:	89 8b       	std	Y+17, r24	; 0x11
     590:	9a 8b       	std	Y+18, r25	; 0x12
     592:	ab 8b       	std	Y+19, r26	; 0x13
     594:	bc 8b       	std	Y+20, r27	; 0x14
						}
						
						if(ultrasonics[1] > 100)            // check for sensor pin PC.0 using bit
     596:	8d 89       	ldd	r24, Y+21	; 0x15
     598:	9e 89       	ldd	r25, Y+22	; 0x16
     59a:	af 89       	ldd	r26, Y+23	; 0x17
     59c:	b8 8d       	ldd	r27, Y+24	; 0x18
     59e:	85 36       	cpi	r24, 0x65	; 101
     5a0:	91 05       	cpc	r25, r1
     5a2:	a1 05       	cpc	r26, r1
     5a4:	b1 05       	cpc	r27, r1
     5a6:	40 f0       	brcs	.+16     	; 0x5b8 <main+0x158>
						{
							ultrasonics[1] = 100;
     5a8:	84 e6       	ldi	r24, 0x64	; 100
     5aa:	90 e0       	ldi	r25, 0x00	; 0
     5ac:	a0 e0       	ldi	r26, 0x00	; 0
     5ae:	b0 e0       	ldi	r27, 0x00	; 0
     5b0:	8d 8b       	std	Y+21, r24	; 0x15
     5b2:	9e 8b       	std	Y+22, r25	; 0x16
     5b4:	af 8b       	std	Y+23, r26	; 0x17
     5b6:	b8 8f       	std	Y+24, r27	; 0x18
						}
						ultrasonics_normalized[0]= ultrasonics[0]/100;
     5b8:	69 89       	ldd	r22, Y+17	; 0x11
     5ba:	7a 89       	ldd	r23, Y+18	; 0x12
     5bc:	8b 89       	ldd	r24, Y+19	; 0x13
     5be:	9c 89       	ldd	r25, Y+20	; 0x14
     5c0:	24 e6       	ldi	r18, 0x64	; 100
     5c2:	30 e0       	ldi	r19, 0x00	; 0
     5c4:	40 e0       	ldi	r20, 0x00	; 0
     5c6:	50 e0       	ldi	r21, 0x00	; 0
     5c8:	0e 94 12 0d 	call	0x1a24	; 0x1a24 <__udivmodsi4>
     5cc:	ca 01       	movw	r24, r20
     5ce:	b9 01       	movw	r22, r18
     5d0:	0e 94 7e 0b 	call	0x16fc	; 0x16fc <__floatunsisf>
     5d4:	61 96       	adiw	r28, 0x11	; 17
     5d6:	6c af       	std	Y+60, r22	; 0x3c
     5d8:	7d af       	std	Y+61, r23	; 0x3d
     5da:	8e af       	std	Y+62, r24	; 0x3e
     5dc:	9f af       	std	Y+63, r25	; 0x3f
     5de:	61 97       	sbiw	r28, 0x11	; 17
						ultrasonics_normalized[1]= ultrasonics[1]/100;
     5e0:	6d 89       	ldd	r22, Y+21	; 0x15
     5e2:	7e 89       	ldd	r23, Y+22	; 0x16
     5e4:	8f 89       	ldd	r24, Y+23	; 0x17
     5e6:	98 8d       	ldd	r25, Y+24	; 0x18
     5e8:	24 e6       	ldi	r18, 0x64	; 100
     5ea:	30 e0       	ldi	r19, 0x00	; 0
     5ec:	40 e0       	ldi	r20, 0x00	; 0
     5ee:	50 e0       	ldi	r21, 0x00	; 0
     5f0:	0e 94 12 0d 	call	0x1a24	; 0x1a24 <__udivmodsi4>
     5f4:	ca 01       	movw	r24, r20
     5f6:	b9 01       	movw	r22, r18
     5f8:	0e 94 7e 0b 	call	0x16fc	; 0x16fc <__floatunsisf>
     5fc:	2b 01       	movw	r4, r22
     5fe:	3c 01       	movw	r6, r24
						output[0] = 0;
     600:	80 e0       	ldi	r24, 0x00	; 0
     602:	90 e0       	ldi	r25, 0x00	; 0
     604:	a0 e0       	ldi	r26, 0x00	; 0
     606:	b0 e0       	ldi	r27, 0x00	; 0
     608:	89 87       	std	Y+9, r24	; 0x09
     60a:	9a 87       	std	Y+10, r25	; 0x0a
     60c:	ab 87       	std	Y+11, r26	; 0x0b
     60e:	bc 87       	std	Y+12, r27	; 0x0c
						output[1] = 0;
     610:	8d 87       	std	Y+13, r24	; 0x0d
     612:	9e 87       	std	Y+14, r25	; 0x0e
     614:	af 87       	std	Y+15, r26	; 0x0f
     616:	b8 8b       	std	Y+16, r27	; 0x10
						network(output, ultrasonics_normalized[1], ultrasonics_normalized[0], pir_l, pir_r);
     618:	61 2f       	mov	r22, r17
     61a:	70 e0       	ldi	r23, 0x00	; 0
     61c:	76 95       	lsr	r23
     61e:	67 95       	ror	r22
     620:	61 70       	andi	r22, 0x01	; 1
     622:	70 70       	andi	r23, 0x00	; 0
     624:	88 27       	eor	r24, r24
     626:	77 fd       	sbrc	r23, 7
     628:	80 95       	com	r24
     62a:	98 2f       	mov	r25, r24
     62c:	0e 94 80 0b 	call	0x1700	; 0x1700 <__floatsisf>
     630:	6b 01       	movw	r12, r22
     632:	7c 01       	movw	r14, r24
     634:	60 2f       	mov	r22, r16
     636:	70 e0       	ldi	r23, 0x00	; 0
     638:	61 70       	andi	r22, 0x01	; 1
     63a:	70 70       	andi	r23, 0x00	; 0
     63c:	88 27       	eor	r24, r24
     63e:	77 fd       	sbrc	r23, 7
     640:	80 95       	com	r24
     642:	98 2f       	mov	r25, r24
     644:	0e 94 80 0b 	call	0x1700	; 0x1700 <__floatsisf>
     648:	4b 01       	movw	r8, r22
     64a:	5c 01       	movw	r10, r24
     64c:	ce 01       	movw	r24, r28
     64e:	09 96       	adiw	r24, 0x09	; 9
     650:	b3 01       	movw	r22, r6
     652:	a2 01       	movw	r20, r4
     654:	61 96       	adiw	r28, 0x11	; 17
     656:	0c ad       	ldd	r16, Y+60	; 0x3c
     658:	1d ad       	ldd	r17, Y+61	; 0x3d
     65a:	2e ad       	ldd	r18, Y+62	; 0x3e
     65c:	3f ad       	ldd	r19, Y+63	; 0x3f
     65e:	61 97       	sbiw	r28, 0x11	; 17
     660:	0e 94 89 08 	call	0x1112	; 0x1112 <network>
						dtostrf(output[0], 10, 5, out);
     664:	69 85       	ldd	r22, Y+9	; 0x09
     666:	7a 85       	ldd	r23, Y+10	; 0x0a
     668:	8b 85       	ldd	r24, Y+11	; 0x0b
     66a:	9c 85       	ldd	r25, Y+12	; 0x0c
     66c:	4a e0       	ldi	r20, 0x0A	; 10
     66e:	25 e0       	ldi	r18, 0x05	; 5
     670:	8e 01       	movw	r16, r28
     672:	07 5e       	subi	r16, 0xE7	; 231
     674:	1f 4f       	sbci	r17, 0xFF	; 255
     676:	0e 94 34 0d 	call	0x1a68	; 0x1a68 <dtostrf>
						dtostrf(output[1], 10, 5, out1);
     67a:	6d 85       	ldd	r22, Y+13	; 0x0d
     67c:	7e 85       	ldd	r23, Y+14	; 0x0e
     67e:	8f 85       	ldd	r24, Y+15	; 0x0f
     680:	98 89       	ldd	r25, Y+16	; 0x10
     682:	4a e0       	ldi	r20, 0x0A	; 10
     684:	25 e0       	ldi	r18, 0x05	; 5
     686:	8e 01       	movw	r16, r28
     688:	0d 5d       	subi	r16, 0xDD	; 221
     68a:	1f 4f       	sbci	r17, 0xFF	; 255
     68c:	0e 94 34 0d 	call	0x1a68	; 0x1a68 <dtostrf>
						UART0_print(out);
     690:	ce 01       	movw	r24, r28
     692:	49 96       	adiw	r24, 0x19	; 25
     694:	0e 94 95 05 	call	0xb2a	; 0xb2a <UART0_print>
						UART0_print("\r\n");
     698:	82 e3       	ldi	r24, 0x32	; 50
     69a:	91 e0       	ldi	r25, 0x01	; 1
     69c:	0e 94 95 05 	call	0xb2a	; 0xb2a <UART0_print>
						UART0_print(out1);
     6a0:	c8 01       	movw	r24, r16
     6a2:	0e 94 95 05 	call	0xb2a	; 0xb2a <UART0_print>
						UART0_print("\r\n");
     6a6:	82 e3       	ldi	r24, 0x32	; 50
     6a8:	91 e0       	ldi	r25, 0x01	; 1
     6aa:	0e 94 95 05 	call	0xb2a	; 0xb2a <UART0_print>
						int left = (int)(output[0]*255);
						int right = (int)(output[1]*255);
						MOTOR_drive(right,left);
     6ae:	6d 85       	ldd	r22, Y+13	; 0x0d
     6b0:	7e 85       	ldd	r23, Y+14	; 0x0e
     6b2:	8f 85       	ldd	r24, Y+15	; 0x0f
     6b4:	98 89       	ldd	r25, Y+16	; 0x10
     6b6:	20 e0       	ldi	r18, 0x00	; 0
     6b8:	30 e0       	ldi	r19, 0x00	; 0
     6ba:	4f e7       	ldi	r20, 0x7F	; 127
     6bc:	53 e4       	ldi	r21, 0x43	; 67
     6be:	0e 94 a1 0c 	call	0x1942	; 0x1942 <__mulsf3>
     6c2:	0e 94 4d 0b 	call	0x169a	; 0x169a <__fixsfsi>
     6c6:	7b 01       	movw	r14, r22
     6c8:	8c 01       	movw	r16, r24
     6ca:	69 85       	ldd	r22, Y+9	; 0x09
     6cc:	7a 85       	ldd	r23, Y+10	; 0x0a
     6ce:	8b 85       	ldd	r24, Y+11	; 0x0b
     6d0:	9c 85       	ldd	r25, Y+12	; 0x0c
     6d2:	20 e0       	ldi	r18, 0x00	; 0
     6d4:	30 e0       	ldi	r19, 0x00	; 0
     6d6:	4f e7       	ldi	r20, 0x7F	; 127
     6d8:	53 e4       	ldi	r21, 0x43	; 67
     6da:	0e 94 a1 0c 	call	0x1942	; 0x1942 <__mulsf3>
     6de:	0e 94 4d 0b 	call	0x169a	; 0x169a <__fixsfsi>
     6e2:	9b 01       	movw	r18, r22
     6e4:	ac 01       	movw	r20, r24
     6e6:	c7 01       	movw	r24, r14
     6e8:	b9 01       	movw	r22, r18
     6ea:	0e 94 bf 06 	call	0xd7e	; 0xd7e <MOTOR_drive>
     6ee:	ec ce       	rjmp	.-552    	; 0x4c8 <main+0x68>
						break;
					case 'm':
						if((PINB & (1<<PIR2)))            // check for sensor pin PC.0 using bit
     6f0:	b1 9b       	sbis	0x16, 1	; 22
     6f2:	ea ce       	rjmp	.-556    	; 0x4c8 <main+0x68>
							{
								UART0_print("Janusz2");
     6f4:	85 e3       	ldi	r24, 0x35	; 53
     6f6:	91 e0       	ldi	r25, 0x01	; 1
     6f8:	29 c0       	rjmp	.+82     	; 0x74c <main+0x2ec>
							}
						break;
					case 'u':
						UART0_print("Ultrasonic: ");
     6fa:	8d e3       	ldi	r24, 0x3D	; 61
     6fc:	91 e0       	ldi	r25, 0x01	; 1
     6fe:	0e 94 95 05 	call	0xb2a	; 0xb2a <UART0_print>
						read_sonar(ultrasonics);
     702:	c1 01       	movw	r24, r2
     704:	0e 94 79 07 	call	0xef2	; 0xef2 <read_sonar>
						char str[16];
						itoa (ultrasonics[0],str,10);
     708:	89 89       	ldd	r24, Y+17	; 0x11
     70a:	9a 89       	ldd	r25, Y+18	; 0x12
     70c:	be 01       	movw	r22, r28
     70e:	63 5d       	subi	r22, 0xD3	; 211
     710:	7f 4f       	sbci	r23, 0xFF	; 255
     712:	4a e0       	ldi	r20, 0x0A	; 10
     714:	50 e0       	ldi	r21, 0x00	; 0
     716:	0e 94 73 0d 	call	0x1ae6	; 0x1ae6 <itoa>
						UART0_print(str);
     71a:	ce 01       	movw	r24, r28
     71c:	8d 96       	adiw	r24, 0x2d	; 45
     71e:	12 c0       	rjmp	.+36     	; 0x744 <main+0x2e4>
						UART0_print("\r\n");
						break;		
					case 'y':
						UART0_print("Ultrasonic2: ");
     720:	8a e4       	ldi	r24, 0x4A	; 74
     722:	91 e0       	ldi	r25, 0x01	; 1
     724:	0e 94 95 05 	call	0xb2a	; 0xb2a <UART0_print>
						read_sonar(ultrasonics);
     728:	c1 01       	movw	r24, r2
     72a:	0e 94 79 07 	call	0xef2	; 0xef2 <read_sonar>
						char str2[16];
						itoa (ultrasonics[1],str2,10);
     72e:	8d 89       	ldd	r24, Y+21	; 0x15
     730:	9e 89       	ldd	r25, Y+22	; 0x16
     732:	be 01       	movw	r22, r28
     734:	63 5c       	subi	r22, 0xC3	; 195
     736:	7f 4f       	sbci	r23, 0xFF	; 255
     738:	4a e0       	ldi	r20, 0x0A	; 10
     73a:	50 e0       	ldi	r21, 0x00	; 0
     73c:	0e 94 73 0d 	call	0x1ae6	; 0x1ae6 <itoa>
						UART0_print(str2);
     740:	ce 01       	movw	r24, r28
     742:	cd 96       	adiw	r24, 0x3d	; 61
     744:	0e 94 95 05 	call	0xb2a	; 0xb2a <UART0_print>
						UART0_print("\r\n");
     748:	82 e3       	ldi	r24, 0x32	; 50
     74a:	91 e0       	ldi	r25, 0x01	; 1
     74c:	0e 94 95 05 	call	0xb2a	; 0xb2a <UART0_print>
     750:	bb ce       	rjmp	.-650    	; 0x4c8 <main+0x68>

00000752 <UART0_init>:
unsigned char x;
   
	//UBRRH=0x01;
	//UBRRL=0xA0;		//dla 2400@16MHz
	//UBRRL=207;		//dla 4800@16MHz
	UBRR0L=103;		//dla 9600@16MHz
     752:	87 e6       	ldi	r24, 0x67	; 103
     754:	89 b9       	out	0x09, r24	; 9
	//UBRRL=51;			//dla 19200@16MHz
	//UBRR0L=16;			//dla 57600@16MHz
	//UBRRL=8;			//dla 57600@8MHz
	//UBRRL=8;			//dla 115200@16MHz
   
   UCSR0B=0x98;//10011000
     756:	88 e9       	ldi	r24, 0x98	; 152
     758:	8a b9       	out	0x0a, r24	; 10
   UCSR0C=0x86;
     75a:	86 e8       	ldi	r24, 0x86	; 134
     75c:	80 93 95 00 	sts	0x0095, r24
   
   x = 0;			   /* Flush receive buffer */
   UART0_RxTail = x;
     760:	10 92 8c 03 	sts	0x038C, r1
   UART0_RxHead = x;
     764:	10 92 82 03 	sts	0x0382, r1
   UART0_TxTail = x;
     768:	10 92 8d 03 	sts	0x038D, r1
   UART0_TxHead = x;
     76c:	10 92 8f 03 	sts	0x038F, r1
   
   uart_echo=0;
     770:	10 92 8e 03 	sts	0x038E, r1
   
}
     774:	08 95       	ret

00000776 <UART1_init>:
	//UBRRH=0x01;
	//UBRRL=0xA0;		//dla 2400@16MHz
	//UBRRL=207;		//dla 4800@16MHz
	//UBRRL=103;		//dla 9600@16MHz
	//UBRRL=51;			//dla 19200@16MHz
	UBRR1L=16;			//dla 57600@16MHz
     776:	80 e1       	ldi	r24, 0x10	; 16
     778:	80 93 99 00 	sts	0x0099, r24
	//UBRRL=8;			//dla 57600@8MHz
	//UBRRL=8;			//dla 115200@16MHz
   
   UCSR1B=0x98;//10011000
     77c:	88 e9       	ldi	r24, 0x98	; 152
     77e:	80 93 9a 00 	sts	0x009A, r24
   UCSR1C=0x86;
     782:	86 e8       	ldi	r24, 0x86	; 134
     784:	80 93 9d 00 	sts	0x009D, r24
   
   x = 0;			   /* Flush receive buffer */
   UART1_RxTail = x;
     788:	10 92 92 03 	sts	0x0392, r1
   UART1_RxHead = x;
     78c:	10 92 88 03 	sts	0x0388, r1
   UART1_TxTail = x;
     790:	10 92 85 03 	sts	0x0385, r1
   UART1_TxHead = x;
     794:	10 92 89 03 	sts	0x0389, r1
   
   uart_echo=0;
     798:	10 92 8e 03 	sts	0x038E, r1
   
}
     79c:	08 95       	ret

0000079e <UART0_disable>:
////////////////////////////////////////////////////////////////////////////////
//Wylaczanie RS
////////////////////////////////////////////////////////////////////////////////
extern void UART0_disable(void)
{
	UCSR0B &= ~((1<<RXCIE)|(1<<TXCIE)|(1<<UDRIE)|(1<<RXEN)|(1<<TXEN));	
     79e:	8a b1       	in	r24, 0x0a	; 10
     7a0:	87 70       	andi	r24, 0x07	; 7
     7a2:	8a b9       	out	0x0a, r24	; 10
}
     7a4:	08 95       	ret

000007a6 <UART1_disable>:
extern void UART1_disable(void)
{
	UCSR1B &= ~((1<<RXCIE)|(1<<TXCIE)|(1<<UDRIE)|(1<<RXEN)|(1<<TXEN));	
     7a6:	ea e9       	ldi	r30, 0x9A	; 154
     7a8:	f0 e0       	ldi	r31, 0x00	; 0
     7aa:	80 81       	ld	r24, Z
     7ac:	87 70       	andi	r24, 0x07	; 7
     7ae:	80 83       	st	Z, r24
}
     7b0:	08 95       	ret

000007b2 <__vector_18>:
////////////////////////////////////////////////////////////////////////////////
//Przerwanie od odebranego znaku
////////////////////////////////////////////////////////////////////////////////
SIGNAL(SIG_UART0_RECV)
{
     7b2:	1f 92       	push	r1
     7b4:	0f 92       	push	r0
     7b6:	0f b6       	in	r0, 0x3f	; 63
     7b8:	0f 92       	push	r0
     7ba:	0b b6       	in	r0, 0x3b	; 59
     7bc:	0f 92       	push	r0
     7be:	11 24       	eor	r1, r1
     7c0:	8f 93       	push	r24
     7c2:	9f 93       	push	r25
     7c4:	ef 93       	push	r30
     7c6:	ff 93       	push	r31
   
	static unsigned char data;
	static unsigned char tmphead;

	data = UDR0; 						//przepisz rejestr do data
     7c8:	9c b1       	in	r25, 0x0c	; 12
     7ca:	90 93 f5 01 	sts	0x01F5, r25

   	
	tmphead = ( UART0_RxHead + 1 ) & UART0_RX_BUFFER_MASK;
     7ce:	e0 91 82 03 	lds	r30, 0x0382
     7d2:	ef 5f       	subi	r30, 0xFF	; 255
     7d4:	ef 77       	andi	r30, 0x7F	; 127
     7d6:	e0 93 f4 01 	sts	0x01F4, r30
									//oblicz wskasnik bufora
	UART0_RxHead = tmphead;		
     7da:	e0 93 82 03 	sts	0x0382, r30

	if ( tmphead == UART0_RxTail )	//obsluga bledu przepelnienia bufora
     7de:	80 91 8c 03 	lds	r24, 0x038C
     7e2:	e8 17       	cp	r30, r24
     7e4:	41 f4       	brne	.+16     	; 0x7f6 <__vector_18+0x44>
	SREG=sreg;
}
extern void UART0_flush_rx_buffer(void)
{
	unsigned char sreg;
	sreg=SREG;
     7e6:	8f b7       	in	r24, 0x3f	; 63
	cli();
     7e8:	f8 94       	cli
		UART0_RxHead=0;
     7ea:	10 92 82 03 	sts	0x0382, r1
		UART0_RxTail=0;
     7ee:	10 92 8c 03 	sts	0x038C, r1
	SREG=sreg;
     7f2:	8f bf       	out	0x3f, r24	; 63
     7f4:	04 c0       	rjmp	.+8      	; 0x7fe <__vector_18+0x4c>

	}

	else
	{
	UART0_RxBuf[tmphead] = data; 	//zapisz dane w buforze odbiorczym
     7f6:	f0 e0       	ldi	r31, 0x00	; 0
     7f8:	ea 50       	subi	r30, 0x0A	; 10
     7fa:	fe 4f       	sbci	r31, 0xFE	; 254
     7fc:	90 83       	st	Z, r25
	}

}
     7fe:	ff 91       	pop	r31
     800:	ef 91       	pop	r30
     802:	9f 91       	pop	r25
     804:	8f 91       	pop	r24
     806:	0f 90       	pop	r0
     808:	0b be       	out	0x3b, r0	; 59
     80a:	0f 90       	pop	r0
     80c:	0f be       	out	0x3f, r0	; 63
     80e:	0f 90       	pop	r0
     810:	1f 90       	pop	r1
     812:	18 95       	reti

00000814 <__vector_30>:
SIGNAL(SIG_UART1_RECV)
{
     814:	1f 92       	push	r1
     816:	0f 92       	push	r0
     818:	0f b6       	in	r0, 0x3f	; 63
     81a:	0f 92       	push	r0
     81c:	0b b6       	in	r0, 0x3b	; 59
     81e:	0f 92       	push	r0
     820:	11 24       	eor	r1, r1
     822:	8f 93       	push	r24
     824:	9f 93       	push	r25
     826:	ef 93       	push	r30
     828:	ff 93       	push	r31
   
	static unsigned char data;
	static unsigned char tmphead;

	data = UDR1; 						//przepisz rejestr do data
     82a:	90 91 9c 00 	lds	r25, 0x009C
     82e:	90 93 f3 01 	sts	0x01F3, r25

   	
	tmphead = ( UART1_RxHead + 1 ) & UART1_RX_BUFFER_MASK;
     832:	e0 91 88 03 	lds	r30, 0x0388
     836:	ef 5f       	subi	r30, 0xFF	; 255
     838:	ef 77       	andi	r30, 0x7F	; 127
     83a:	e0 93 f2 01 	sts	0x01F2, r30
									//oblicz wskasnik bufora
	UART1_RxHead = tmphead;		
     83e:	e0 93 88 03 	sts	0x0388, r30

	if ( tmphead == UART1_RxTail )	//obsluga bledu przepelnienia bufora
     842:	80 91 92 03 	lds	r24, 0x0392
     846:	e8 17       	cp	r30, r24
     848:	41 f4       	brne	.+16     	; 0x85a <__vector_30+0x46>
	SREG=sreg;
}
extern void UART1_flush_rx_buffer(void)
{
	unsigned char sreg;
	sreg=SREG;
     84a:	8f b7       	in	r24, 0x3f	; 63
	cli();
     84c:	f8 94       	cli
		UART1_RxHead=0;
     84e:	10 92 88 03 	sts	0x0388, r1
		UART1_RxTail=0;
     852:	10 92 92 03 	sts	0x0392, r1
	SREG=sreg;
     856:	8f bf       	out	0x3f, r24	; 63
     858:	04 c0       	rjmp	.+8      	; 0x862 <__vector_30+0x4e>

	}

	else
	{
	UART1_RxBuf[tmphead] = data; 	//zapisz dane w buforze odbiorczym
     85a:	f0 e0       	ldi	r31, 0x00	; 0
     85c:	ea 54       	subi	r30, 0x4A	; 74
     85e:	fd 4f       	sbci	r31, 0xFD	; 253
     860:	90 83       	st	Z, r25
	}

}
     862:	ff 91       	pop	r31
     864:	ef 91       	pop	r30
     866:	9f 91       	pop	r25
     868:	8f 91       	pop	r24
     86a:	0f 90       	pop	r0
     86c:	0b be       	out	0x3b, r0	; 59
     86e:	0f 90       	pop	r0
     870:	0f be       	out	0x3f, r0	; 63
     872:	0f 90       	pop	r0
     874:	1f 90       	pop	r1
     876:	18 95       	reti

00000878 <__vector_19>:
////////////////////////////////////////////////////////////////////////////////
//Przerwanie od pustego rejestru nadawczego (wywolywane jest cyklicznie
//jesli dane zostaly wyslane, dlatego jest niezbedne jego wlaczanie/wylaczanie)
////////////////////////////////////////////////////////////////////////////////
SIGNAL(SIG_UART0_DATA)
{
     878:	1f 92       	push	r1
     87a:	0f 92       	push	r0
     87c:	0f b6       	in	r0, 0x3f	; 63
     87e:	0f 92       	push	r0
     880:	0b b6       	in	r0, 0x3b	; 59
     882:	0f 92       	push	r0
     884:	11 24       	eor	r1, r1
     886:	8f 93       	push	r24
     888:	9f 93       	push	r25
     88a:	ef 93       	push	r30
     88c:	ff 93       	push	r31
	
	static unsigned char tmptail;
	static unsigned char temp;
	
	if ( UART0_TxHead != UART0_TxTail )//sprawdz czy wyslano juz wszystkie dane
     88e:	90 91 8f 03 	lds	r25, 0x038F
     892:	80 91 8d 03 	lds	r24, 0x038D
     896:	98 17       	cp	r25, r24
     898:	81 f0       	breq	.+32     	; 0x8ba <__vector_19+0x42>
	{
		tmptail = ( UART0_TxTail + 1 ) & UART0_TX_BUFFER_MASK;
     89a:	e0 91 8d 03 	lds	r30, 0x038D
     89e:	ef 5f       	subi	r30, 0xFF	; 255
     8a0:	ef 73       	andi	r30, 0x3F	; 63
     8a2:	e0 93 f1 01 	sts	0x01F1, r30
		UART0_TxTail = tmptail;	  
     8a6:	e0 93 8d 03 	sts	0x038D, r30
		temp = UART0_TxBuf[tmptail];	//rozpocznij transmisje
     8aa:	f0 e0       	ldi	r31, 0x00	; 0
     8ac:	ea 58       	subi	r30, 0x8A	; 138
     8ae:	fd 4f       	sbci	r31, 0xFD	; 253
     8b0:	80 81       	ld	r24, Z
     8b2:	80 93 f0 01 	sts	0x01F0, r24
		UDR0 = temp;
     8b6:	8c b9       	out	0x0c, r24	; 12
     8b8:	01 c0       	rjmp	.+2      	; 0x8bc <__vector_19+0x44>

	}
	else
	{
	  	UCSR0B &= ~(1<<UDRIE);			//wylacz przerwania UDRE
     8ba:	55 98       	cbi	0x0a, 5	; 10
	}
}
     8bc:	ff 91       	pop	r31
     8be:	ef 91       	pop	r30
     8c0:	9f 91       	pop	r25
     8c2:	8f 91       	pop	r24
     8c4:	0f 90       	pop	r0
     8c6:	0b be       	out	0x3b, r0	; 59
     8c8:	0f 90       	pop	r0
     8ca:	0f be       	out	0x3f, r0	; 63
     8cc:	0f 90       	pop	r0
     8ce:	1f 90       	pop	r1
     8d0:	18 95       	reti

000008d2 <__vector_31>:
SIGNAL(SIG_UART1_DATA)
{
     8d2:	1f 92       	push	r1
     8d4:	0f 92       	push	r0
     8d6:	0f b6       	in	r0, 0x3f	; 63
     8d8:	0f 92       	push	r0
     8da:	0b b6       	in	r0, 0x3b	; 59
     8dc:	0f 92       	push	r0
     8de:	11 24       	eor	r1, r1
     8e0:	8f 93       	push	r24
     8e2:	9f 93       	push	r25
     8e4:	ef 93       	push	r30
     8e6:	ff 93       	push	r31
	
	static unsigned char tmptail;
	static unsigned char temp;
	
	if ( UART1_TxHead != UART1_TxTail )//sprawdz czy wyslano juz wszystkie dane
     8e8:	90 91 89 03 	lds	r25, 0x0389
     8ec:	80 91 85 03 	lds	r24, 0x0385
     8f0:	98 17       	cp	r25, r24
     8f2:	89 f0       	breq	.+34     	; 0x916 <__vector_31+0x44>
	{
		tmptail = ( UART1_TxTail + 1 ) & UART1_TX_BUFFER_MASK;
     8f4:	e0 91 85 03 	lds	r30, 0x0385
     8f8:	ef 5f       	subi	r30, 0xFF	; 255
     8fa:	ef 73       	andi	r30, 0x3F	; 63
     8fc:	e0 93 ef 01 	sts	0x01EF, r30
		UART1_TxTail = tmptail;	  
     900:	e0 93 85 03 	sts	0x0385, r30
		temp = UART1_TxBuf[tmptail];	//rozpocznij transmisje
     904:	f0 e0       	ldi	r31, 0x00	; 0
     906:	ea 5c       	subi	r30, 0xCA	; 202
     908:	fc 4f       	sbci	r31, 0xFC	; 252
     90a:	80 81       	ld	r24, Z
     90c:	80 93 ee 01 	sts	0x01EE, r24
		UDR1 = temp;
     910:	80 93 9c 00 	sts	0x009C, r24
     914:	05 c0       	rjmp	.+10     	; 0x920 <__vector_31+0x4e>

	}
	else
	{
	  	UCSR1B &= ~(1<<UDRIE);			//wylacz przerwania UDRE
     916:	80 91 9a 00 	lds	r24, 0x009A
     91a:	8f 7d       	andi	r24, 0xDF	; 223
     91c:	80 93 9a 00 	sts	0x009A, r24
	}
}
     920:	ff 91       	pop	r31
     922:	ef 91       	pop	r30
     924:	9f 91       	pop	r25
     926:	8f 91       	pop	r24
     928:	0f 90       	pop	r0
     92a:	0b be       	out	0x3b, r0	; 59
     92c:	0f 90       	pop	r0
     92e:	0f be       	out	0x3f, r0	; 63
     930:	0f 90       	pop	r0
     932:	1f 90       	pop	r1
     934:	18 95       	reti

00000936 <UART0_receive_byte>:
extern unsigned char UART0_receive_byte( void )
{
	unsigned char tmptail;
	
	
	while(UART0_RxHead == UART0_RxTail);
     936:	90 91 82 03 	lds	r25, 0x0382
     93a:	80 91 8c 03 	lds	r24, 0x038C
     93e:	98 17       	cp	r25, r24
     940:	d1 f3       	breq	.-12     	; 0x936 <UART0_receive_byte>
	
   	tmptail = ( UART0_RxTail + 1 ) & UART0_RX_BUFFER_MASK;
     942:	e0 91 8c 03 	lds	r30, 0x038C
     946:	ef 5f       	subi	r30, 0xFF	; 255
     948:	ef 77       	andi	r30, 0x7F	; 127
   									//pobierz dane z bufora
   	UART0_RxTail = tmptail;	
     94a:	e0 93 8c 03 	sts	0x038C, r30
     94e:	f0 e0       	ldi	r31, 0x00	; 0
     950:	ea 50       	subi	r30, 0x0A	; 10
     952:	fe 4f       	sbci	r31, 0xFE	; 254
   	

   
	return UART0_RxBuf[tmptail]; 
}
     954:	80 81       	ld	r24, Z
     956:	08 95       	ret

00000958 <UART1_receive_byte>:
extern unsigned char UART1_receive_byte( void )
{
	unsigned char tmptail;
	
	
	while(UART1_RxHead == UART1_RxTail);
     958:	90 91 88 03 	lds	r25, 0x0388
     95c:	80 91 92 03 	lds	r24, 0x0392
     960:	98 17       	cp	r25, r24
     962:	d1 f3       	breq	.-12     	; 0x958 <UART1_receive_byte>
	
   	tmptail = ( UART1_RxTail + 1 ) & UART1_RX_BUFFER_MASK;
     964:	e0 91 92 03 	lds	r30, 0x0392
     968:	ef 5f       	subi	r30, 0xFF	; 255
     96a:	ef 77       	andi	r30, 0x7F	; 127
   									//pobierz dane z bufora
   	UART1_RxTail = tmptail;	
     96c:	e0 93 92 03 	sts	0x0392, r30
     970:	f0 e0       	ldi	r31, 0x00	; 0
     972:	ea 54       	subi	r30, 0x4A	; 74
     974:	fd 4f       	sbci	r31, 0xFD	; 253
   	

   
	return UART1_RxBuf[tmptail]; 
}
     976:	80 81       	ld	r24, Z
     978:	08 95       	ret

0000097a <UART0_transmit_byte>:
////////////////////////////////////////////////////////////////////////////////
//Wysylanie bajtu poprzez wpisanie do bufora nadawczeo i uruchomienie przerwania
//od pustego rejestru danej do wyslania
////////////////////////////////////////////////////////////////////////////////
extern void UART0_transmit_byte( unsigned char data )
{
     97a:	28 2f       	mov	r18, r24
	unsigned char tmphead;
	

	
   	tmphead = ( UART0_TxHead + 1 ) & UART0_TX_BUFFER_MASK; 
     97c:	90 91 8f 03 	lds	r25, 0x038F
     980:	9f 5f       	subi	r25, 0xFF	; 255
     982:	9f 73       	andi	r25, 0x3F	; 63
   									
   	while ( tmphead == UART0_TxTail );
     984:	80 91 8d 03 	lds	r24, 0x038D
     988:	98 17       	cp	r25, r24
     98a:	e1 f3       	breq	.-8      	; 0x984 <UART0_transmit_byte+0xa>
   									//czekaj na wolne miejsce w buforze
   	
   	UART0_TxBuf[tmphead] = data;		//zapisz dane w buforze
     98c:	e9 2f       	mov	r30, r25
     98e:	f0 e0       	ldi	r31, 0x00	; 0
     990:	ea 58       	subi	r30, 0x8A	; 138
     992:	fd 4f       	sbci	r31, 0xFD	; 253
     994:	20 83       	st	Z, r18
   	UART0_TxHead = tmphead;			
     996:	90 93 8f 03 	sts	0x038F, r25

   	UCSR0B |= (1<<UDRIE);				//uruchom przerwania
     99a:	55 9a       	sbi	0x0a, 5	; 10
   	
}
     99c:	08 95       	ret

0000099e <UART1_transmit_byte>:
extern void UART1_transmit_byte( unsigned char data )
{
     99e:	28 2f       	mov	r18, r24
	unsigned char tmphead;
	

	
   	tmphead = ( UART1_TxHead + 1 ) & UART1_TX_BUFFER_MASK; 
     9a0:	90 91 89 03 	lds	r25, 0x0389
     9a4:	9f 5f       	subi	r25, 0xFF	; 255
     9a6:	9f 73       	andi	r25, 0x3F	; 63
   									
   	while ( tmphead == UART1_TxTail );
     9a8:	80 91 85 03 	lds	r24, 0x0385
     9ac:	98 17       	cp	r25, r24
     9ae:	e1 f3       	breq	.-8      	; 0x9a8 <UART1_transmit_byte+0xa>
   									//czekaj na wolne miejsce w buforze
   	
   	UART1_TxBuf[tmphead] = data;		//zapisz dane w buforze
     9b0:	e9 2f       	mov	r30, r25
     9b2:	f0 e0       	ldi	r31, 0x00	; 0
     9b4:	ea 5c       	subi	r30, 0xCA	; 202
     9b6:	fc 4f       	sbci	r31, 0xFC	; 252
     9b8:	20 83       	st	Z, r18
   	UART1_TxHead = tmphead;			
     9ba:	90 93 89 03 	sts	0x0389, r25

   	UCSR1B |= (1<<UDRIE);				//uruchom przerwania
     9be:	80 91 9a 00 	lds	r24, 0x009A
     9c2:	80 62       	ori	r24, 0x20	; 32
     9c4:	80 93 9a 00 	sts	0x009A, r24
   	
}
     9c8:	08 95       	ret

000009ca <UART0_data_in_rx_buffer>:
////////////////////////////////////////////////////////////////////////////////
extern unsigned char UART0_data_in_rx_buffer( void )
{

	
   return ( UART0_RxHead != UART0_RxTail );  
     9ca:	90 91 82 03 	lds	r25, 0x0382
     9ce:	80 91 8c 03 	lds	r24, 0x038C
     9d2:	20 e0       	ldi	r18, 0x00	; 0
     9d4:	98 13       	cpse	r25, r24
     9d6:	21 e0       	ldi	r18, 0x01	; 1
   									//zwroc zero jesli bufor wejsciowy pusty
}
     9d8:	82 2f       	mov	r24, r18
     9da:	08 95       	ret

000009dc <UART1_data_in_rx_buffer>:
extern unsigned char UART1_data_in_rx_buffer( void )
{

	
   return ( UART1_RxHead != UART1_RxTail );  
     9dc:	90 91 88 03 	lds	r25, 0x0388
     9e0:	80 91 92 03 	lds	r24, 0x0392
     9e4:	20 e0       	ldi	r18, 0x00	; 0
     9e6:	98 13       	cpse	r25, r24
     9e8:	21 e0       	ldi	r18, 0x01	; 1
   									//zwroc zero jesli bufor wejsciowy pusty
}
     9ea:	82 2f       	mov	r24, r18
     9ec:	08 95       	ret

000009ee <UART0_data_in_tx_buffer>:
////////////////////////////////////////////////////////////////////////////////
//Sprawdzenie, czy sa dane do przeslania w buforze tx
////////////////////////////////////////////////////////////////////////////////
extern unsigned char UART0_data_in_tx_buffer( void )
{
   return ( UART0_TxHead != UART0_TxTail ); 
     9ee:	90 91 8f 03 	lds	r25, 0x038F
     9f2:	80 91 8d 03 	lds	r24, 0x038D
     9f6:	20 e0       	ldi	r18, 0x00	; 0
     9f8:	98 13       	cpse	r25, r24
     9fa:	21 e0       	ldi	r18, 0x01	; 1
   									//zwroc zero jesli bufor wyjsciowy pusty
}
     9fc:	82 2f       	mov	r24, r18
     9fe:	08 95       	ret

00000a00 <UART1_data_in_tx_buffer>:
extern unsigned char UART1_data_in_tx_buffer( void )
{
   return ( UART1_TxHead != UART1_TxTail ); 
     a00:	90 91 89 03 	lds	r25, 0x0389
     a04:	80 91 85 03 	lds	r24, 0x0385
     a08:	20 e0       	ldi	r18, 0x00	; 0
     a0a:	98 13       	cpse	r25, r24
     a0c:	21 e0       	ldi	r18, 0x01	; 1
   									//zwroc zero jesli bufor wyjsciowy pusty
}
     a0e:	82 2f       	mov	r24, r18
     a10:	08 95       	ret

00000a12 <UART0_bytes_in_rx_buffer>:
////////////////////////////////////////////////////////////////////////////////
extern unsigned char UART0_bytes_in_rx_buffer(void)
{
	unsigned char temp;
	unsigned char sreg;
	sreg=SREG;
     a12:	2f b7       	in	r18, 0x3f	; 63
	cli();
     a14:	f8 94       	cli
	
	if(UART0_RxHead >= UART0_RxTail)
     a16:	90 91 82 03 	lds	r25, 0x0382
     a1a:	80 91 8c 03 	lds	r24, 0x038C
     a1e:	98 17       	cp	r25, r24
     a20:	28 f0       	brcs	.+10     	; 0xa2c <UART0_bytes_in_rx_buffer+0x1a>
	{
		temp=UART0_RxHead-UART0_RxTail;
     a22:	90 91 82 03 	lds	r25, 0x0382
     a26:	80 91 8c 03 	lds	r24, 0x038C
     a2a:	05 c0       	rjmp	.+10     	; 0xa36 <UART0_bytes_in_rx_buffer+0x24>
		SREG=sreg;
		return(temp);
	}
	else
	{
		temp=UART0_RX_BUFFER_SIZE-UART0_RxTail+UART0_RxHead;
     a2c:	90 91 82 03 	lds	r25, 0x0382
     a30:	80 91 8c 03 	lds	r24, 0x038C
     a34:	90 58       	subi	r25, 0x80	; 128
     a36:	98 1b       	sub	r25, r24
		SREG=sreg;
     a38:	2f bf       	out	0x3f, r18	; 63
		return(temp);
	}
	
}
     a3a:	89 2f       	mov	r24, r25
     a3c:	08 95       	ret

00000a3e <UART1_bytes_in_rx_buffer>:
extern unsigned char UART1_bytes_in_rx_buffer(void)
{
	unsigned char temp;
	unsigned char sreg;
	sreg=SREG;
     a3e:	2f b7       	in	r18, 0x3f	; 63
	cli();
     a40:	f8 94       	cli
	
	if(UART1_RxHead >= UART1_RxTail)
     a42:	90 91 88 03 	lds	r25, 0x0388
     a46:	80 91 92 03 	lds	r24, 0x0392
     a4a:	98 17       	cp	r25, r24
     a4c:	28 f0       	brcs	.+10     	; 0xa58 <UART1_bytes_in_rx_buffer+0x1a>
	{
		temp=UART1_RxHead-UART1_RxTail;
     a4e:	90 91 88 03 	lds	r25, 0x0388
     a52:	80 91 92 03 	lds	r24, 0x0392
     a56:	05 c0       	rjmp	.+10     	; 0xa62 <UART1_bytes_in_rx_buffer+0x24>
		SREG=sreg;
		return(temp);
	}
	else
	{
		temp=UART1_RX_BUFFER_SIZE-UART1_RxTail+UART1_RxHead;
     a58:	90 91 88 03 	lds	r25, 0x0388
     a5c:	80 91 92 03 	lds	r24, 0x0392
     a60:	90 58       	subi	r25, 0x80	; 128
     a62:	98 1b       	sub	r25, r24
		SREG=sreg;
     a64:	2f bf       	out	0x3f, r18	; 63
		return(temp);
	}
	
}
     a66:	89 2f       	mov	r24, r25
     a68:	08 95       	ret

00000a6a <UART0_bytes_in_tx_buffer>:
extern unsigned char UART0_bytes_in_tx_buffer(void)
{
	unsigned char temp;
	unsigned char sreg;
	sreg=SREG;
     a6a:	2f b7       	in	r18, 0x3f	; 63
	cli();
     a6c:	f8 94       	cli
	
	if(UART0_TxHead >= UART0_TxTail)
     a6e:	90 91 8f 03 	lds	r25, 0x038F
     a72:	80 91 8d 03 	lds	r24, 0x038D
     a76:	98 17       	cp	r25, r24
     a78:	28 f0       	brcs	.+10     	; 0xa84 <UART0_bytes_in_tx_buffer+0x1a>
	{
		temp=UART0_TxHead-UART0_TxTail;
     a7a:	90 91 8f 03 	lds	r25, 0x038F
     a7e:	80 91 8d 03 	lds	r24, 0x038D
     a82:	05 c0       	rjmp	.+10     	; 0xa8e <UART0_bytes_in_tx_buffer+0x24>
		SREG=sreg;
		return(temp);
	}
	else
	{
		temp=UART0_TX_BUFFER_SIZE-UART0_TxTail+UART0_TxHead;
     a84:	90 91 8f 03 	lds	r25, 0x038F
     a88:	80 91 8d 03 	lds	r24, 0x038D
     a8c:	90 5c       	subi	r25, 0xC0	; 192
     a8e:	98 1b       	sub	r25, r24
		SREG=sreg;
     a90:	2f bf       	out	0x3f, r18	; 63
		return(temp);
	}
}
     a92:	89 2f       	mov	r24, r25
     a94:	08 95       	ret

00000a96 <UART1_bytes_in_tx_buffer>:
extern unsigned char UART1_bytes_in_tx_buffer(void)
{
	unsigned char temp;
	unsigned char sreg;
	sreg=SREG;
     a96:	2f b7       	in	r18, 0x3f	; 63
	cli();
     a98:	f8 94       	cli
	
	if(UART1_TxHead >= UART1_TxTail)
     a9a:	90 91 89 03 	lds	r25, 0x0389
     a9e:	80 91 85 03 	lds	r24, 0x0385
     aa2:	98 17       	cp	r25, r24
     aa4:	28 f0       	brcs	.+10     	; 0xab0 <UART1_bytes_in_tx_buffer+0x1a>
	{
		temp=UART1_TxHead-UART1_TxTail;
     aa6:	90 91 89 03 	lds	r25, 0x0389
     aaa:	80 91 85 03 	lds	r24, 0x0385
     aae:	05 c0       	rjmp	.+10     	; 0xaba <UART1_bytes_in_tx_buffer+0x24>
		SREG=sreg;
		return(temp);
	}
	else
	{
		temp=UART1_TX_BUFFER_SIZE-UART1_TxTail+UART1_TxHead;
     ab0:	90 91 89 03 	lds	r25, 0x0389
     ab4:	80 91 85 03 	lds	r24, 0x0385
     ab8:	90 5c       	subi	r25, 0xC0	; 192
     aba:	98 1b       	sub	r25, r24
		SREG=sreg;
     abc:	2f bf       	out	0x3f, r18	; 63
		return(temp);
	}
}
     abe:	89 2f       	mov	r24, r25
     ac0:	08 95       	ret

00000ac2 <UART0_flush_tx_buffer>:
//Czyszczenie buforow
////////////////////////////////////////////////////////////////////////////////
extern void UART0_flush_tx_buffer(void)
{
	unsigned char sreg;				//zachowanie stanu rejestru statusowego
	sreg=SREG;
     ac2:	8f b7       	in	r24, 0x3f	; 63
	cli();
     ac4:	f8 94       	cli
		UART0_TxHead=0;
     ac6:	10 92 8f 03 	sts	0x038F, r1
		UART0_TxTail=0;
     aca:	10 92 8d 03 	sts	0x038D, r1
	SREG=sreg;
     ace:	8f bf       	out	0x3f, r24	; 63
}
     ad0:	08 95       	ret

00000ad2 <UART1_flush_tx_buffer>:
extern void UART1_flush_tx_buffer(void)
{
	unsigned char sreg;				//zachowanie stanu rejestru statusowego
	sreg=SREG;
     ad2:	8f b7       	in	r24, 0x3f	; 63
	cli();
     ad4:	f8 94       	cli
		UART1_TxHead=0;
     ad6:	10 92 89 03 	sts	0x0389, r1
		UART1_TxTail=0;
     ada:	10 92 85 03 	sts	0x0385, r1
	SREG=sreg;
     ade:	8f bf       	out	0x3f, r24	; 63
}
     ae0:	08 95       	ret

00000ae2 <UART0_flush_rx_buffer>:
extern void UART0_flush_rx_buffer(void)
{
	unsigned char sreg;
	sreg=SREG;
     ae2:	8f b7       	in	r24, 0x3f	; 63
	cli();
     ae4:	f8 94       	cli
		UART0_RxHead=0;
     ae6:	10 92 82 03 	sts	0x0382, r1
		UART0_RxTail=0;
     aea:	10 92 8c 03 	sts	0x038C, r1
	SREG=sreg;
     aee:	8f bf       	out	0x3f, r24	; 63
}
     af0:	08 95       	ret

00000af2 <UART1_flush_rx_buffer>:
extern void UART1_flush_rx_buffer(void)
{
	unsigned char sreg;
	sreg=SREG;
     af2:	8f b7       	in	r24, 0x3f	; 63
	cli();
     af4:	f8 94       	cli
		UART1_RxHead=0;
     af6:	10 92 88 03 	sts	0x0388, r1
		UART1_RxTail=0;
     afa:	10 92 92 03 	sts	0x0392, r1
	SREG=sreg;
     afe:	8f bf       	out	0x3f, r24	; 63
}
     b00:	08 95       	ret

00000b02 <UART0_return>:
////////////////////////////////////////////////////////////////////////////////
//Przejscie do nowej linii i dodanie znaku konca stringa (konwencja DOS - \r\n)
////////////////////////////////////////////////////////////////////////////////
extern void UART0_return(void)//przejscie do nowej linii oraz zakonczenie stringa w terminalu
{
UART0_transmit_byte('\0');
     b02:	80 e0       	ldi	r24, 0x00	; 0
     b04:	0e 94 bd 04 	call	0x97a	; 0x97a <UART0_transmit_byte>
UART0_transmit_byte('\r');
     b08:	8d e0       	ldi	r24, 0x0D	; 13
     b0a:	0e 94 bd 04 	call	0x97a	; 0x97a <UART0_transmit_byte>
UART0_transmit_byte('\n');
     b0e:	8a e0       	ldi	r24, 0x0A	; 10
     b10:	0e 94 bd 04 	call	0x97a	; 0x97a <UART0_transmit_byte>
}
     b14:	08 95       	ret

00000b16 <UART1_return>:
extern void UART1_return(void)//przejscie do nowej linii oraz zakonczenie stringa w terminalu
{
UART1_transmit_byte('\0');
     b16:	80 e0       	ldi	r24, 0x00	; 0
     b18:	0e 94 cf 04 	call	0x99e	; 0x99e <UART1_transmit_byte>
UART1_transmit_byte('\r');
     b1c:	8d e0       	ldi	r24, 0x0D	; 13
     b1e:	0e 94 cf 04 	call	0x99e	; 0x99e <UART1_transmit_byte>
UART1_transmit_byte('\n');
     b22:	8a e0       	ldi	r24, 0x0A	; 10
     b24:	0e 94 cf 04 	call	0x99e	; 0x99e <UART1_transmit_byte>
}
     b28:	08 95       	ret

00000b2a <UART0_print>:
////////////////////////////////////////////////////////////////////////////////
//Wypisywanie stringa na terminal (wlacznie ze znakiem konca stringa)
////////////////////////////////////////////////////////////////////////////////
extern unsigned char UART0_print(unsigned char *tekst)//wypisywanie na terminal
{
     b2a:	ef 92       	push	r14
     b2c:	ff 92       	push	r15
     b2e:	0f 93       	push	r16
     b30:	1f 93       	push	r17
     b32:	df 93       	push	r29
     b34:	cf 93       	push	r28
     b36:	0f 92       	push	r0
     b38:	cd b7       	in	r28, 0x3d	; 61
     b3a:	de b7       	in	r29, 0x3e	; 62
     b3c:	7c 01       	movw	r14, r24
     b3e:	90 e0       	ldi	r25, 0x00	; 0
unsigned char i=0;


for(;;)
{
	UART0_transmit_byte(*(tekst+i));
     b40:	87 01       	movw	r16, r14
     b42:	09 0f       	add	r16, r25
     b44:	11 1d       	adc	r17, r1
     b46:	f8 01       	movw	r30, r16
     b48:	80 81       	ld	r24, Z
     b4a:	99 83       	std	Y+1, r25	; 0x01
     b4c:	0e 94 bd 04 	call	0x97a	; 0x97a <UART0_transmit_byte>
	if(!(*(tekst+i)))	break;
     b50:	f8 01       	movw	r30, r16
     b52:	80 81       	ld	r24, Z
     b54:	99 81       	ldd	r25, Y+1	; 0x01
     b56:	88 23       	and	r24, r24
     b58:	11 f0       	breq	.+4      	; 0xb5e <UART0_print+0x34>
	i++;
     b5a:	9f 5f       	subi	r25, 0xFF	; 255
     b5c:	f1 cf       	rjmp	.-30     	; 0xb40 <UART0_print+0x16>
}


return i;
}
     b5e:	89 2f       	mov	r24, r25
     b60:	0f 90       	pop	r0
     b62:	cf 91       	pop	r28
     b64:	df 91       	pop	r29
     b66:	1f 91       	pop	r17
     b68:	0f 91       	pop	r16
     b6a:	ff 90       	pop	r15
     b6c:	ef 90       	pop	r14
     b6e:	08 95       	ret

00000b70 <UART1_print>:
extern unsigned char UART1_print(unsigned char *tekst)//wypisywanie na terminal
{
     b70:	ef 92       	push	r14
     b72:	ff 92       	push	r15
     b74:	0f 93       	push	r16
     b76:	1f 93       	push	r17
     b78:	df 93       	push	r29
     b7a:	cf 93       	push	r28
     b7c:	0f 92       	push	r0
     b7e:	cd b7       	in	r28, 0x3d	; 61
     b80:	de b7       	in	r29, 0x3e	; 62
     b82:	7c 01       	movw	r14, r24
     b84:	90 e0       	ldi	r25, 0x00	; 0
unsigned char i=0;


for(;;)
{
	UART1_transmit_byte(*(tekst+i));
     b86:	87 01       	movw	r16, r14
     b88:	09 0f       	add	r16, r25
     b8a:	11 1d       	adc	r17, r1
     b8c:	f8 01       	movw	r30, r16
     b8e:	80 81       	ld	r24, Z
     b90:	99 83       	std	Y+1, r25	; 0x01
     b92:	0e 94 cf 04 	call	0x99e	; 0x99e <UART1_transmit_byte>
	if(!(*(tekst+i)))	break;
     b96:	f8 01       	movw	r30, r16
     b98:	80 81       	ld	r24, Z
     b9a:	99 81       	ldd	r25, Y+1	; 0x01
     b9c:	88 23       	and	r24, r24
     b9e:	11 f0       	breq	.+4      	; 0xba4 <UART1_print+0x34>
	i++;
     ba0:	9f 5f       	subi	r25, 0xFF	; 255
     ba2:	f1 cf       	rjmp	.-30     	; 0xb86 <UART1_print+0x16>
}


return i;
}
     ba4:	89 2f       	mov	r24, r25
     ba6:	0f 90       	pop	r0
     ba8:	cf 91       	pop	r28
     baa:	df 91       	pop	r29
     bac:	1f 91       	pop	r17
     bae:	0f 91       	pop	r16
     bb0:	ff 90       	pop	r15
     bb2:	ef 90       	pop	r14
     bb4:	08 95       	ret

00000bb6 <UART0_gets>:
////////////////////////////////////////////////////////////////////////////////
//Odczytywanie stringow lub linii z rsa
////////////////////////////////////////////////////////////////////////////////
extern unsigned char UART0_gets(unsigned char *buf,unsigned char ile)
{
     bb6:	cf 93       	push	r28
     bb8:	df 93       	push	r29
     bba:	dc 01       	movw	r26, r24
     bbc:	ec 01       	movw	r28, r24
     bbe:	20 e0       	ldi	r18, 0x00	; 0
     bc0:	1e c0       	rjmp	.+60     	; 0xbfe <UART0_gets+0x48>
unsigned char i=0;

while(i<ile)
     bc2:	ae 01       	movw	r20, r28
extern unsigned char UART0_receive_byte( void )
{
	unsigned char tmptail;
	
	
	while(UART0_RxHead == UART0_RxTail);
     bc4:	90 91 82 03 	lds	r25, 0x0382
     bc8:	80 91 8c 03 	lds	r24, 0x038C
     bcc:	98 17       	cp	r25, r24
     bce:	d1 f3       	breq	.-12     	; 0xbc4 <UART0_gets+0xe>
	
   	tmptail = ( UART0_RxTail + 1 ) & UART0_RX_BUFFER_MASK;
     bd0:	e0 91 8c 03 	lds	r30, 0x038C
     bd4:	ef 5f       	subi	r30, 0xFF	; 255
     bd6:	ef 77       	andi	r30, 0x7F	; 127
   									//pobierz dane z bufora
   	UART0_RxTail = tmptail;	
     bd8:	e0 93 8c 03 	sts	0x038C, r30
   	

   
	return UART0_RxBuf[tmptail]; 
     bdc:	f0 e0       	ldi	r31, 0x00	; 0
     bde:	ea 50       	subi	r30, 0x0A	; 10
     be0:	fe 4f       	sbci	r31, 0xFE	; 254
     be2:	e0 81       	ld	r30, Z
{
unsigned char i=0;

while(i<ile)
{
	*(buf+i)=UART0_receive_byte();
     be4:	e8 83       	st	Y, r30

	if((*(buf+i)=='\r')||(*(buf+i)=='\n')||(*(buf+i)=='\0'))
     be6:	ed 30       	cpi	r30, 0x0D	; 13
     be8:	29 f0       	breq	.+10     	; 0xbf4 <UART0_gets+0x3e>
     bea:	ea 30       	cpi	r30, 0x0A	; 10
     bec:	19 f0       	breq	.+6      	; 0xbf4 <UART0_gets+0x3e>
     bee:	21 96       	adiw	r28, 0x01	; 1
     bf0:	ee 23       	and	r30, r30
     bf2:	21 f4       	brne	.+8      	; 0xbfc <UART0_gets+0x46>
		{
			*(buf+i)='\0';
     bf4:	fa 01       	movw	r30, r20
     bf6:	10 82       	st	Z, r1
			return(i+1);	//zwroc ilosc znakow wraz ze znakiem \0
     bf8:	2f 5f       	subi	r18, 0xFF	; 255
     bfa:	07 c0       	rjmp	.+14     	; 0xc0a <UART0_gets+0x54>
		}
	else
		{
			i++;//przestawienie wskaznika na nowa pozyzje tablicy
     bfc:	2f 5f       	subi	r18, 0xFF	; 255
////////////////////////////////////////////////////////////////////////////////
extern unsigned char UART0_gets(unsigned char *buf,unsigned char ile)
{
unsigned char i=0;

while(i<ile)
     bfe:	26 17       	cp	r18, r22
     c00:	00 f3       	brcs	.-64     	; 0xbc2 <UART0_gets+0xc>
		{
			i++;//przestawienie wskaznika na nowa pozyzje tablicy
		}
}

*(buf+i-1)='\0';
     c02:	a2 0f       	add	r26, r18
     c04:	b1 1d       	adc	r27, r1
     c06:	11 97       	sbiw	r26, 0x01	; 1
     c08:	1c 92       	st	X, r1
return(i);							//zwracamy liczbe odebranych bajtow
}
     c0a:	82 2f       	mov	r24, r18
     c0c:	df 91       	pop	r29
     c0e:	cf 91       	pop	r28
     c10:	08 95       	ret

00000c12 <UART1_gets>:
extern unsigned char UART1_gets(unsigned char *buf,unsigned char ile)
{
     c12:	cf 93       	push	r28
     c14:	df 93       	push	r29
     c16:	dc 01       	movw	r26, r24
     c18:	ec 01       	movw	r28, r24
     c1a:	20 e0       	ldi	r18, 0x00	; 0
     c1c:	1e c0       	rjmp	.+60     	; 0xc5a <UART1_gets+0x48>
unsigned char i=0;

while(i<ile)
     c1e:	ae 01       	movw	r20, r28
extern unsigned char UART1_receive_byte( void )
{
	unsigned char tmptail;
	
	
	while(UART1_RxHead == UART1_RxTail);
     c20:	90 91 88 03 	lds	r25, 0x0388
     c24:	80 91 92 03 	lds	r24, 0x0392
     c28:	98 17       	cp	r25, r24
     c2a:	d1 f3       	breq	.-12     	; 0xc20 <UART1_gets+0xe>
	
   	tmptail = ( UART1_RxTail + 1 ) & UART1_RX_BUFFER_MASK;
     c2c:	e0 91 92 03 	lds	r30, 0x0392
     c30:	ef 5f       	subi	r30, 0xFF	; 255
     c32:	ef 77       	andi	r30, 0x7F	; 127
   									//pobierz dane z bufora
   	UART1_RxTail = tmptail;	
     c34:	e0 93 92 03 	sts	0x0392, r30
   	

   
	return UART1_RxBuf[tmptail]; 
     c38:	f0 e0       	ldi	r31, 0x00	; 0
     c3a:	ea 54       	subi	r30, 0x4A	; 74
     c3c:	fd 4f       	sbci	r31, 0xFD	; 253
     c3e:	e0 81       	ld	r30, Z
{
unsigned char i=0;

while(i<ile)
{
	*(buf+i)=UART1_receive_byte();
     c40:	e8 83       	st	Y, r30

	if((*(buf+i)=='\r')||(*(buf+i)=='\n')||(*(buf+i)=='\0'))
     c42:	ed 30       	cpi	r30, 0x0D	; 13
     c44:	29 f0       	breq	.+10     	; 0xc50 <UART1_gets+0x3e>
     c46:	ea 30       	cpi	r30, 0x0A	; 10
     c48:	19 f0       	breq	.+6      	; 0xc50 <UART1_gets+0x3e>
     c4a:	21 96       	adiw	r28, 0x01	; 1
     c4c:	ee 23       	and	r30, r30
     c4e:	21 f4       	brne	.+8      	; 0xc58 <UART1_gets+0x46>
		{
			*(buf+i)='\0';
     c50:	fa 01       	movw	r30, r20
     c52:	10 82       	st	Z, r1
			return(i+1);	//zwroc ilosc znakow wraz ze znakiem \0
     c54:	2f 5f       	subi	r18, 0xFF	; 255
     c56:	07 c0       	rjmp	.+14     	; 0xc66 <UART1_gets+0x54>
		}
	else
		{
			i++;//przestawienie wskaznika na nowa pozyzje tablicy
     c58:	2f 5f       	subi	r18, 0xFF	; 255
}
extern unsigned char UART1_gets(unsigned char *buf,unsigned char ile)
{
unsigned char i=0;

while(i<ile)
     c5a:	26 17       	cp	r18, r22
     c5c:	00 f3       	brcs	.-64     	; 0xc1e <UART1_gets+0xc>
		{
			i++;//przestawienie wskaznika na nowa pozyzje tablicy
		}
}

*(buf+i-1)='\0';
     c5e:	a2 0f       	add	r26, r18
     c60:	b1 1d       	adc	r27, r1
     c62:	11 97       	sbiw	r26, 0x01	; 1
     c64:	1c 92       	st	X, r1
return(i);							//zwracamy liczbe odebranych bajtow
}
     c66:	82 2f       	mov	r24, r18
     c68:	df 91       	pop	r29
     c6a:	cf 91       	pop	r28
     c6c:	08 95       	ret

00000c6e <UART0_send_block>:

////////////////////////////////////////////////////////////////////////////////
//Przesylanie danych binarnych
////////////////////////////////////////////////////////////////////////////////
extern void UART0_send_block(const void *var, unsigned char cnt)
{
     c6e:	ef 92       	push	r14
     c70:	ff 92       	push	r15
     c72:	0f 93       	push	r16
     c74:	1f 93       	push	r17
     c76:	cf 93       	push	r28
     c78:	df 93       	push	r29
     c7a:	7c 01       	movw	r14, r24
     c7c:	c0 e0       	ldi	r28, 0x00	; 0
     c7e:	d0 e0       	ldi	r29, 0x00	; 0
	unsigned char* ptr;
	ptr=(unsigned char *)var;
					
	for(unsigned int i=0;i<cnt;i++)
     c80:	06 2f       	mov	r16, r22
     c82:	10 e0       	ldi	r17, 0x00	; 0
     c84:	07 c0       	rjmp	.+14     	; 0xc94 <UART0_send_block+0x26>
	{
		UART0_transmit_byte(*(ptr));
     c86:	f7 01       	movw	r30, r14
     c88:	ec 0f       	add	r30, r28
     c8a:	fd 1f       	adc	r31, r29
     c8c:	80 81       	ld	r24, Z
     c8e:	0e 94 bd 04 	call	0x97a	; 0x97a <UART0_transmit_byte>
extern void UART0_send_block(const void *var, unsigned char cnt)
{
	unsigned char* ptr;
	ptr=(unsigned char *)var;
					
	for(unsigned int i=0;i<cnt;i++)
     c92:	21 96       	adiw	r28, 0x01	; 1
     c94:	c0 17       	cp	r28, r16
     c96:	d1 07       	cpc	r29, r17
     c98:	b0 f3       	brcs	.-20     	; 0xc86 <UART0_send_block+0x18>
	{
		UART0_transmit_byte(*(ptr));
		ptr++;
	}
}
     c9a:	df 91       	pop	r29
     c9c:	cf 91       	pop	r28
     c9e:	1f 91       	pop	r17
     ca0:	0f 91       	pop	r16
     ca2:	ff 90       	pop	r15
     ca4:	ef 90       	pop	r14
     ca6:	08 95       	ret

00000ca8 <UART1_send_block>:
extern void UART1_send_block(const void *var, unsigned char cnt)
{
     ca8:	ef 92       	push	r14
     caa:	ff 92       	push	r15
     cac:	0f 93       	push	r16
     cae:	1f 93       	push	r17
     cb0:	cf 93       	push	r28
     cb2:	df 93       	push	r29
     cb4:	7c 01       	movw	r14, r24
     cb6:	c0 e0       	ldi	r28, 0x00	; 0
     cb8:	d0 e0       	ldi	r29, 0x00	; 0
	unsigned char* ptr;
	ptr=(unsigned char *)var;
					
	for(unsigned int i=0;i<cnt;i++)
     cba:	06 2f       	mov	r16, r22
     cbc:	10 e0       	ldi	r17, 0x00	; 0
     cbe:	07 c0       	rjmp	.+14     	; 0xcce <UART1_send_block+0x26>
	{
		UART1_transmit_byte(*(ptr));
     cc0:	f7 01       	movw	r30, r14
     cc2:	ec 0f       	add	r30, r28
     cc4:	fd 1f       	adc	r31, r29
     cc6:	80 81       	ld	r24, Z
     cc8:	0e 94 cf 04 	call	0x99e	; 0x99e <UART1_transmit_byte>
extern void UART1_send_block(const void *var, unsigned char cnt)
{
	unsigned char* ptr;
	ptr=(unsigned char *)var;
					
	for(unsigned int i=0;i<cnt;i++)
     ccc:	21 96       	adiw	r28, 0x01	; 1
     cce:	c0 17       	cp	r28, r16
     cd0:	d1 07       	cpc	r29, r17
     cd2:	b0 f3       	brcs	.-20     	; 0xcc0 <UART1_send_block+0x18>
	{
		UART1_transmit_byte(*(ptr));
		ptr++;
	}
}
     cd4:	df 91       	pop	r29
     cd6:	cf 91       	pop	r28
     cd8:	1f 91       	pop	r17
     cda:	0f 91       	pop	r16
     cdc:	ff 90       	pop	r15
     cde:	ef 90       	pop	r14
     ce0:	08 95       	ret

00000ce2 <UART0_receive_block>:
////////////////////////////////////////////////////////////////////////////////
//Odbieranie danych binarnych
////////////////////////////////////////////////////////////////////////////////
extern void UART0_receive_block(void *var, unsigned char cnt)
{
     ce2:	ac 01       	movw	r20, r24
     ce4:	20 e0       	ldi	r18, 0x00	; 0
     ce6:	30 e0       	ldi	r19, 0x00	; 0
	unsigned char* ptr;
	ptr=(unsigned char *)var;
					
	for(unsigned int i=0;i<cnt;i++)
     ce8:	70 e0       	ldi	r23, 0x00	; 0
     cea:	16 c0       	rjmp	.+44     	; 0xd18 <UART0_receive_block+0x36>
extern unsigned char UART0_receive_byte( void )
{
	unsigned char tmptail;
	
	
	while(UART0_RxHead == UART0_RxTail);
     cec:	90 91 82 03 	lds	r25, 0x0382
     cf0:	80 91 8c 03 	lds	r24, 0x038C
     cf4:	98 17       	cp	r25, r24
     cf6:	d1 f3       	breq	.-12     	; 0xcec <UART0_receive_block+0xa>
	
   	tmptail = ( UART0_RxTail + 1 ) & UART0_RX_BUFFER_MASK;
     cf8:	e0 91 8c 03 	lds	r30, 0x038C
     cfc:	ef 5f       	subi	r30, 0xFF	; 255
     cfe:	ef 77       	andi	r30, 0x7F	; 127
   									//pobierz dane z bufora
   	UART0_RxTail = tmptail;	
     d00:	e0 93 8c 03 	sts	0x038C, r30
	unsigned char* ptr;
	ptr=(unsigned char *)var;
					
	for(unsigned int i=0;i<cnt;i++)
	{
		*(ptr)=UART0_receive_byte();
     d04:	da 01       	movw	r26, r20
     d06:	a2 0f       	add	r26, r18
     d08:	b3 1f       	adc	r27, r19
     d0a:	f0 e0       	ldi	r31, 0x00	; 0
     d0c:	ea 50       	subi	r30, 0x0A	; 10
     d0e:	fe 4f       	sbci	r31, 0xFE	; 254
     d10:	80 81       	ld	r24, Z
     d12:	8c 93       	st	X, r24
extern void UART0_receive_block(void *var, unsigned char cnt)
{
	unsigned char* ptr;
	ptr=(unsigned char *)var;
					
	for(unsigned int i=0;i<cnt;i++)
     d14:	2f 5f       	subi	r18, 0xFF	; 255
     d16:	3f 4f       	sbci	r19, 0xFF	; 255
     d18:	26 17       	cp	r18, r22
     d1a:	37 07       	cpc	r19, r23
     d1c:	38 f3       	brcs	.-50     	; 0xcec <UART0_receive_block+0xa>
	{
		*(ptr)=UART0_receive_byte();
		ptr++;
	}
}
     d1e:	08 95       	ret

00000d20 <UART1_receive_block>:
extern void UART1_receive_block(void *var, unsigned char cnt)
{
     d20:	ac 01       	movw	r20, r24
     d22:	20 e0       	ldi	r18, 0x00	; 0
     d24:	30 e0       	ldi	r19, 0x00	; 0
	unsigned char* ptr;
	ptr=(unsigned char *)var;
					
	for(unsigned int i=0;i<cnt;i++)
     d26:	70 e0       	ldi	r23, 0x00	; 0
     d28:	16 c0       	rjmp	.+44     	; 0xd56 <UART1_receive_block+0x36>
extern unsigned char UART1_receive_byte( void )
{
	unsigned char tmptail;
	
	
	while(UART1_RxHead == UART1_RxTail);
     d2a:	90 91 88 03 	lds	r25, 0x0388
     d2e:	80 91 92 03 	lds	r24, 0x0392
     d32:	98 17       	cp	r25, r24
     d34:	d1 f3       	breq	.-12     	; 0xd2a <UART1_receive_block+0xa>
	
   	tmptail = ( UART1_RxTail + 1 ) & UART1_RX_BUFFER_MASK;
     d36:	e0 91 92 03 	lds	r30, 0x0392
     d3a:	ef 5f       	subi	r30, 0xFF	; 255
     d3c:	ef 77       	andi	r30, 0x7F	; 127
   									//pobierz dane z bufora
   	UART1_RxTail = tmptail;	
     d3e:	e0 93 92 03 	sts	0x0392, r30
	unsigned char* ptr;
	ptr=(unsigned char *)var;
					
	for(unsigned int i=0;i<cnt;i++)
	{
		*(ptr)=UART1_receive_byte();
     d42:	da 01       	movw	r26, r20
     d44:	a2 0f       	add	r26, r18
     d46:	b3 1f       	adc	r27, r19
     d48:	f0 e0       	ldi	r31, 0x00	; 0
     d4a:	ea 54       	subi	r30, 0x4A	; 74
     d4c:	fd 4f       	sbci	r31, 0xFD	; 253
     d4e:	80 81       	ld	r24, Z
     d50:	8c 93       	st	X, r24
extern void UART1_receive_block(void *var, unsigned char cnt)
{
	unsigned char* ptr;
	ptr=(unsigned char *)var;
					
	for(unsigned int i=0;i<cnt;i++)
     d52:	2f 5f       	subi	r18, 0xFF	; 255
     d54:	3f 4f       	sbci	r19, 0xFF	; 255
     d56:	26 17       	cp	r18, r22
     d58:	37 07       	cpc	r19, r23
     d5a:	38 f3       	brcs	.-50     	; 0xd2a <UART1_receive_block+0xa>
	{
		*(ptr)=UART1_receive_byte();
		ptr++;
	}
}
     d5c:	08 95       	ret

00000d5e <MOTOR_init>:
	Inicjalizacja timera 3 do generowania sygnalu PWM (Pulse Width Modulation)
o rozdzielczosci 8 bitow i czestotliwosci ok 4kHz
*******************************************************************************/
void MOTOR_init(void)
{
  	TCCR3A |= (1<<COM3A1)|(1<<COM3B1)|(1<<COM3A0)|(1<<COM3B0)|(1<<WGM30);   
     d5e:	eb e8       	ldi	r30, 0x8B	; 139
     d60:	f0 e0       	ldi	r31, 0x00	; 0
     d62:	80 81       	ld	r24, Z
     d64:	81 6f       	ori	r24, 0xF1	; 241
     d66:	80 83       	st	Z, r24
    TCCR3B |= (1<<CS31); //8bit Phase Correct PWM inverting mode dla silników kó³
     d68:	ea e8       	ldi	r30, 0x8A	; 138
     d6a:	f0 e0       	ldi	r31, 0x00	; 0
     d6c:	80 81       	ld	r24, Z
     d6e:	82 60       	ori	r24, 0x02	; 2
     d70:	80 83       	st	Z, r24
						//preskaler przez 8 co da czêstotliwoæ ok 4kHz

  	PG3_SLEEP_PORT &= ~(1<<PG3_SLEEP); //uspienie silnikow	
     d72:	e5 e6       	ldi	r30, 0x65	; 101
     d74:	f0 e0       	ldi	r31, 0x00	; 0
     d76:	80 81       	ld	r24, Z
     d78:	87 7f       	andi	r24, 0xF7	; 247
     d7a:	80 83       	st	Z, r24
}
     d7c:	08 95       	ret

00000d7e <MOTOR_drive>:
kierunek obrotu silnika (kierunki lewo i prawo sa umowne) w zaleznosci od znaku
wartosci zadanej oraz ogranicza wartosc zadana tak aby nie nastepowalo 
przepelnienie.
*******************************************************************************/
void MOTOR_drive(signed int left_speed,signed int right_speed)
{
     d7e:	9c 01       	movw	r18, r24
	if((left_speed != 0) || (right_speed != 0))
     d80:	00 97       	sbiw	r24, 0x00	; 0
     d82:	19 f4       	brne	.+6      	; 0xd8a <MOTOR_drive+0xc>
     d84:	61 15       	cp	r22, r1
     d86:	71 05       	cpc	r23, r1
     d88:	d9 f0       	breq	.+54     	; 0xdc0 <MOTOR_drive+0x42>
		PG3_SLEEP_PORT |= (1<<PG3_SLEEP); //wybudzenie driverow DC ze stanu uspienia
     d8a:	80 91 65 00 	lds	r24, 0x0065
     d8e:	88 60       	ori	r24, 0x08	; 8
     d90:	80 93 65 00 	sts	0x0065, r24

	if(left_speed > 0) //obot w prawo
     d94:	12 16       	cp	r1, r18
     d96:	13 06       	cpc	r1, r19
     d98:	1c f4       	brge	.+6      	; 0xda0 <MOTOR_drive+0x22>
	{
		M1_PORT |= (1<<M1_IN1);
     d9a:	db 9a       	sbi	0x1b, 3	; 27
		M1_PORT &= ~(1<<M1_IN2);
     d9c:	dc 98       	cbi	0x1b, 4	; 27
     d9e:	05 c0       	rjmp	.+10     	; 0xdaa <MOTOR_drive+0x2c>
	}
	else if(left_speed < 0) //obrot w lewo
     da0:	21 15       	cp	r18, r1
     da2:	31 05       	cpc	r19, r1
     da4:	11 f0       	breq	.+4      	; 0xdaa <MOTOR_drive+0x2c>
	{
		M1_PORT &= ~(1<<M1_IN1);
     da6:	db 98       	cbi	0x1b, 3	; 27
		M1_PORT |= (1<<M1_IN2);
     da8:	dc 9a       	sbi	0x1b, 4	; 27
	}
	
	if(right_speed > 0) //obrot w prawo
     daa:	16 16       	cp	r1, r22
     dac:	17 06       	cpc	r1, r23
     dae:	1c f4       	brge	.+6      	; 0xdb6 <MOTOR_drive+0x38>
	{
		M2_PORT |= (1<<M2_IN1);
     db0:	dd 9a       	sbi	0x1b, 5	; 27
		M2_PORT &= ~(1<<M2_IN2);
     db2:	de 98       	cbi	0x1b, 6	; 27
     db4:	05 c0       	rjmp	.+10     	; 0xdc0 <MOTOR_drive+0x42>
	}
	else if(right_speed<0) //obrot w lewo
     db6:	61 15       	cp	r22, r1
     db8:	71 05       	cpc	r23, r1
     dba:	11 f0       	breq	.+4      	; 0xdc0 <MOTOR_drive+0x42>
	{
		M2_PORT &= ~(1<<M2_IN1);
     dbc:	dd 98       	cbi	0x1b, 5	; 27
		M2_PORT |= (1<<M2_IN2);
     dbe:	de 9a       	sbi	0x1b, 6	; 27
	}

    if(abs(right_speed) >= PWM_MAX) //ograniczenie wartosci maksymalnej
     dc0:	77 ff       	sbrs	r23, 7
     dc2:	03 c0       	rjmp	.+6      	; 0xdca <MOTOR_drive+0x4c>
     dc4:	70 95       	com	r23
     dc6:	61 95       	neg	r22
     dc8:	7f 4f       	sbci	r23, 0xFF	; 255
     dca:	6f 3f       	cpi	r22, 0xFF	; 255
     dcc:	71 05       	cpc	r23, r1
     dce:	1c f0       	brlt	.+6      	; 0xdd6 <MOTOR_drive+0x58>
		OCR3A = PWM_MAX;
     dd0:	8f ef       	ldi	r24, 0xFF	; 255
     dd2:	90 e0       	ldi	r25, 0x00	; 0
     dd4:	02 c0       	rjmp	.+4      	; 0xdda <MOTOR_drive+0x5c>
	else
		OCR3A = (unsigned char)(abs(right_speed));
     dd6:	86 2f       	mov	r24, r22
     dd8:	90 e0       	ldi	r25, 0x00	; 0
     dda:	90 93 87 00 	sts	0x0087, r25
     dde:	80 93 86 00 	sts	0x0086, r24
	             
	  
    if(abs(left_speed) >= PWM_MAX) //ograniczenie wartosci maksymalnej
     de2:	c9 01       	movw	r24, r18
     de4:	37 ff       	sbrs	r19, 7
     de6:	03 c0       	rjmp	.+6      	; 0xdee <MOTOR_drive+0x70>
     de8:	90 95       	com	r25
     dea:	81 95       	neg	r24
     dec:	9f 4f       	sbci	r25, 0xFF	; 255
     dee:	8f 3f       	cpi	r24, 0xFF	; 255
     df0:	91 05       	cpc	r25, r1
     df2:	1c f0       	brlt	.+6      	; 0xdfa <MOTOR_drive+0x7c>
		OCR3B = PWM_MAX;
     df4:	8f ef       	ldi	r24, 0xFF	; 255
     df6:	90 e0       	ldi	r25, 0x00	; 0
     df8:	01 c0       	rjmp	.+2      	; 0xdfc <MOTOR_drive+0x7e>
	else
		OCR3B = (unsigned char)(abs(left_speed));  
     dfa:	90 e0       	ldi	r25, 0x00	; 0
     dfc:	90 93 85 00 	sts	0x0085, r25
     e00:	80 93 84 00 	sts	0x0084, r24
     e04:	08 95       	ret

00000e06 <MOTOR_break>:
	Realizuje hamowanie przez zwarcie obu wyprowadzen silnikow do masy. Przydatna
da awaryjnego zatrzymania robota.
*******************************************************************************/
void MOTOR_break(void)
{
     MOTOR_drive(255,255);
     e06:	8f ef       	ldi	r24, 0xFF	; 255
     e08:	90 e0       	ldi	r25, 0x00	; 0
     e0a:	6f ef       	ldi	r22, 0xFF	; 255
     e0c:	70 e0       	ldi	r23, 0x00	; 0
     e0e:	0e 94 bf 06 	call	0xd7e	; 0xd7e <MOTOR_drive>
     M1_PORT |=  (1<<M1_IN1);                     
     e12:	db 9a       	sbi	0x1b, 3	; 27
     M1_PORT |=  (1<<M1_IN2);                     
     e14:	dc 9a       	sbi	0x1b, 4	; 27
     M2_PORT |=  (1<<M2_IN1);                     
     e16:	dd 9a       	sbi	0x1b, 5	; 27
     M2_PORT |=  (1<<M2_IN2);   
     e18:	de 9a       	sbi	0x1b, 6	; 27
}
     e1a:	08 95       	ret

00000e1c <MOTOR_sleep>:
krokowego w stan uspienia (wspolne wyprowadzenie PG3_SLEEP), obnizajac pobor 
pradu
*******************************************************************************/
void MOTOR_sleep(void)
{
	PG3_SLEEP_PORT &= ~(1<<PG3_SLEEP); //przejscie driverow DC w stan uspienia	
     e1c:	e5 e6       	ldi	r30, 0x65	; 101
     e1e:	f0 e0       	ldi	r31, 0x00	; 0
     e20:	80 81       	ld	r24, Z
     e22:	87 7f       	andi	r24, 0xF7	; 247
     e24:	80 83       	st	Z, r24
}
     e26:	08 95       	ret

00000e28 <__vector_15>:
#include "Main.h"

volatile unsigned int TIMER_wait_time_ms = 0;

ISR(TIMER0_COMP_vect)
{
     e28:	1f 92       	push	r1
     e2a:	0f 92       	push	r0
     e2c:	0f b6       	in	r0, 0x3f	; 63
     e2e:	0f 92       	push	r0
     e30:	11 24       	eor	r1, r1
     e32:	2f 93       	push	r18
     e34:	8f 93       	push	r24
     e36:	9f 93       	push	r25
	static unsigned int count;
	
	if(TIMER_wait_time_ms)
     e38:	80 91 76 03 	lds	r24, 0x0376
     e3c:	90 91 77 03 	lds	r25, 0x0377
     e40:	89 2b       	or	r24, r25
     e42:	49 f0       	breq	.+18     	; 0xe56 <__vector_15+0x2e>
	{
		TIMER_wait_time_ms--;
     e44:	80 91 76 03 	lds	r24, 0x0376
     e48:	90 91 77 03 	lds	r25, 0x0377
     e4c:	01 97       	sbiw	r24, 0x01	; 1
     e4e:	90 93 77 03 	sts	0x0377, r25
     e52:	80 93 76 03 	sts	0x0376, r24
	}
	if(count++ >= 500)
     e56:	80 91 78 03 	lds	r24, 0x0378
     e5a:	90 91 79 03 	lds	r25, 0x0379
     e5e:	01 96       	adiw	r24, 0x01	; 1
     e60:	90 93 79 03 	sts	0x0379, r25
     e64:	80 93 78 03 	sts	0x0378, r24
     e68:	01 97       	sbiw	r24, 0x01	; 1
     e6a:	84 5f       	subi	r24, 0xF4	; 244
     e6c:	91 40       	sbci	r25, 0x01	; 1
     e6e:	38 f0       	brcs	.+14     	; 0xe7e <__vector_15+0x56>
	{
		LED1_PORT ^= (1<<LED1);
     e70:	82 b3       	in	r24, 0x12	; 18
     e72:	80 58       	subi	r24, 0x80	; 128
     e74:	82 bb       	out	0x12, r24	; 18
		count = 0;
     e76:	10 92 79 03 	sts	0x0379, r1
     e7a:	10 92 78 03 	sts	0x0378, r1
	}
}
     e7e:	9f 91       	pop	r25
     e80:	8f 91       	pop	r24
     e82:	2f 91       	pop	r18
     e84:	0f 90       	pop	r0
     e86:	0f be       	out	0x3f, r0	; 63
     e88:	0f 90       	pop	r0
     e8a:	1f 90       	pop	r1
     e8c:	18 95       	reti

00000e8e <TIMER_init>:
Opis:
	Inicjalizacja timera 0 do generowania przerwania co 1ms
*******************************************************************************/
void TIMER_init(void)
{
	OCR0 = 249;
     e8e:	89 ef       	ldi	r24, 0xF9	; 249
     e90:	81 bf       	out	0x31, r24	; 49
	TIMSK |= (1<<OCIE0); //wlaczenie przerwania
     e92:	87 b7       	in	r24, 0x37	; 55
     e94:	82 60       	ori	r24, 0x02	; 2
     e96:	87 bf       	out	0x37, r24	; 55
	TCCR0 = ((1<<WGM01)|(1<<CS02));//tryb pracy  CTC, preskaler 64, co daje przy OCR0=249 1kHz@16Mhz, czyli co 1ms	
     e98:	8c e0       	ldi	r24, 0x0C	; 12
     e9a:	83 bf       	out	0x33, r24	; 51
}
     e9c:	08 95       	ret

00000e9e <TIMER_wait_ms>:
Opis:
	Funkcja oczekuje w petli okreslona ilosc milnisekund.
*******************************************************************************/
void TIMER_wait_ms(unsigned int time_ms)
{
	TIMER_wait_time_ms = time_ms;
     e9e:	90 93 77 03 	sts	0x0377, r25
     ea2:	80 93 76 03 	sts	0x0376, r24
	while(TIMER_wait_time_ms) ; //czekanie zadany czas
     ea6:	80 91 76 03 	lds	r24, 0x0376
     eaa:	90 91 77 03 	lds	r25, 0x0377
     eae:	89 2b       	or	r24, r25
     eb0:	d1 f7       	brne	.-12     	; 0xea6 <TIMER_wait_ms+0x8>
}
     eb2:	08 95       	ret

00000eb4 <init_sonar>:
 * Initiate Ultrasonic Module Ports and Pins
 * Input:   none
 * Returns: none
*********** ...- . . .-. --- -... --- - *********************************/
void init_sonar(void){
    TRIG_DDR |= (1<<TRIG_BIT);     // Set Trigger pin as output
     eb4:	bb 9a       	sbi	0x17, 3	; 23
    ECHO_DDR &= ~(1<<ECHO_BIT);     // Set Echo pin as input
     eb6:	bc 98       	cbi	0x17, 4	; 23
	TRIGL_DDR |= (1<<TRIGL_BIT);     // Set Trigger pin as output
     eb8:	a5 9a       	sbi	0x14, 5	; 20
    ECHOL_DDR &= ~(1<<ECHOL_BIT);     // Set Echo pin as input
     eba:	a6 98       	cbi	0x14, 6	; 20
}
     ebc:	08 95       	ret

00000ebe <trigger_sonar_left>:
 *  Input:   none
 *  Returns: none
********** ...- . . .-. --- -... --- - *********************************/
void trigger_sonar_left(void){
    // Clear pin before setting it high
	TRIGL_PORT &= ~(1<<TRIGL_BIT);
     ebe:	ad 98       	cbi	0x15, 5	; 21
    can be achieved.
*/
void
_delay_loop_1(uint8_t __count)
{
	__asm__ volatile (
     ec0:	85 e0       	ldi	r24, 0x05	; 5
     ec2:	98 2f       	mov	r25, r24
     ec4:	9a 95       	dec	r25
     ec6:	f1 f7       	brne	.-4      	; 0xec4 <trigger_sonar_left+0x6>
    _delay_us(1);           // Clear to zero and give time for electronics to set
  	TRIGL_PORT |=(1<<TRIGL_BIT);// Set pin high
     ec8:	ad 9a       	sbi	0x15, 5	; 21
     eca:	90 e4       	ldi	r25, 0x40	; 64
     ecc:	9a 95       	dec	r25
     ece:	f1 f7       	brne	.-4      	; 0xecc <trigger_sonar_left+0xe>
    _delay_us(12);          // Send high pulse for minimum 10us  
	TRIGL_PORT &= ~(1<<TRIGL_BIT); // Clear pin
     ed0:	ad 98       	cbi	0x15, 5	; 21
     ed2:	8a 95       	dec	r24
     ed4:	f1 f7       	brne	.-4      	; 0xed2 <trigger_sonar_left+0x14>
    _delay_us(1);           // Delay not required, but just in case...
}
     ed6:	08 95       	ret

00000ed8 <trigger_sonar_right>:
void trigger_sonar_right(void){
    TRIG_PORT &= ~(1<<TRIG_BIT);             // Clear pin before setting it high
     ed8:	c3 98       	cbi	0x18, 3	; 24
     eda:	85 e0       	ldi	r24, 0x05	; 5
     edc:	98 2f       	mov	r25, r24
     ede:	9a 95       	dec	r25
     ee0:	f1 f7       	brne	.-4      	; 0xede <trigger_sonar_right+0x6>
    _delay_us(1);           // Clear to zero and give time for electronics to set
    TRIG_PORT |=(1<<TRIG_BIT);  // Set pin high
     ee2:	c3 9a       	sbi	0x18, 3	; 24
     ee4:	90 e4       	ldi	r25, 0x40	; 64
     ee6:	9a 95       	dec	r25
     ee8:	f1 f7       	brne	.-4      	; 0xee6 <trigger_sonar_right+0xe>
    _delay_us(12);          // Send high pulse for minimum 10us
    TRIG_PORT &= ~(1<<TRIG_BIT);  // Clear pin
     eea:	c3 98       	cbi	0x18, 3	; 24
     eec:	8a 95       	dec	r24
     eee:	f1 f7       	brne	.-4      	; 0xeec <trigger_sonar_right+0x14>
    _delay_us(1);           // Delay not required, but just in case...
}
     ef0:	08 95       	ret

00000ef2 <read_sonar>:
 * Input:   none
 * Returns: 1. -1       :   Indicates trigger error. Could not pull trigger high
 *          2. -2       :   Indicates echo error. No echo received within range
 *          3. Distance :   Sonar calculated distance in cm.
********** ...- . . .-. --- -... --- - *********************************/
void read_sonar(uint32_t ultrasonics[]){
     ef2:	cf 93       	push	r28
     ef4:	df 93       	push	r29
     ef6:	ec 01       	movw	r28, r24

	uint32_t i, result_left, result_right;
	trigger_sonar_right();
     ef8:	0e 94 6c 07 	call	0xed8	; 0xed8 <trigger_sonar_right>
     efc:	80 e0       	ldi	r24, 0x00	; 0
     efe:	90 e0       	ldi	r25, 0x00	; 0
     f00:	a0 e0       	ldi	r26, 0x00	; 0
     f02:	b0 e0       	ldi	r27, 0x00	; 0
	//Wait for the rising edge
	i=0;
	for(i=0;i<600000;i++)
	{
		if(!(ECHO_PIN & (1<<ECHO_BIT))) 
     f04:	b4 99       	sbic	0x16, 4	; 22
     f06:	0f c0       	rjmp	.+30     	; 0xf26 <read_sonar+0x34>

	uint32_t i, result_left, result_right;
	trigger_sonar_right();
	//Wait for the rising edge
	i=0;
	for(i=0;i<600000;i++)
     f08:	01 96       	adiw	r24, 0x01	; 1
     f0a:	a1 1d       	adc	r26, r1
     f0c:	b1 1d       	adc	r27, r1
     f0e:	80 3c       	cpi	r24, 0xC0	; 192
     f10:	27 e2       	ldi	r18, 0x27	; 39
     f12:	92 07       	cpc	r25, r18
     f14:	29 e0       	ldi	r18, 0x09	; 9
     f16:	a2 07       	cpc	r26, r18
     f18:	20 e0       	ldi	r18, 0x00	; 0
     f1a:	b2 07       	cpc	r27, r18
     f1c:	99 f7       	brne	.-26     	; 0xf04 <read_sonar+0x12>
		else 
			break;		//High edge detected, so break.
	}

	if(i==600000)
		ultrasonics[0] = 0;	//Indicates time out
     f1e:	18 82       	st	Y, r1
     f20:	19 82       	std	Y+1, r1	; 0x01
     f22:	1a 82       	std	Y+2, r1	; 0x02
     f24:	1b 82       	std	Y+3, r1	; 0x03
	
	//High Edge Found

	//Setup Timer1
	TCCR1A=0X00;
     f26:	1f bc       	out	0x2f, r1	; 47
	TCCR1B|=(1<<CS11) ;	//Prescaler = Fcpu/8
     f28:	8e b5       	in	r24, 0x2e	; 46
     f2a:	82 60       	ori	r24, 0x02	; 2
     f2c:	8e bd       	out	0x2e, r24	; 46
	TCNT1=0x00;			//Init counter
     f2e:	1d bc       	out	0x2d, r1	; 45
     f30:	1c bc       	out	0x2c, r1	; 44
     f32:	20 e0       	ldi	r18, 0x00	; 0
     f34:	30 e0       	ldi	r19, 0x00	; 0
     f36:	40 e0       	ldi	r20, 0x00	; 0
     f38:	50 e0       	ldi	r21, 0x00	; 0

	//Now wait for the falling edge
	for(i=0;i<600000;i++)
	{
		if((ECHO_PIN & (1<<ECHO_BIT)))
     f3a:	b4 9b       	sbis	0x16, 4	; 22
     f3c:	19 c0       	rjmp	.+50     	; 0xf70 <read_sonar+0x7e>
		{
			if(TCNT1 > 60000) break; else continue;
     f3e:	8c b5       	in	r24, 0x2c	; 44
     f40:	9d b5       	in	r25, 0x2d	; 45
     f42:	81 56       	subi	r24, 0x61	; 97
     f44:	9a 4e       	sbci	r25, 0xEA	; 234
     f46:	a0 f4       	brcc	.+40     	; 0xf70 <read_sonar+0x7e>
	TCCR1A=0X00;
	TCCR1B|=(1<<CS11) ;	//Prescaler = Fcpu/8
	TCNT1=0x00;			//Init counter

	//Now wait for the falling edge
	for(i=0;i<600000;i++)
     f48:	2f 5f       	subi	r18, 0xFF	; 255
     f4a:	3f 4f       	sbci	r19, 0xFF	; 255
     f4c:	4f 4f       	sbci	r20, 0xFF	; 255
     f4e:	5f 4f       	sbci	r21, 0xFF	; 255
     f50:	20 3c       	cpi	r18, 0xC0	; 192
     f52:	87 e2       	ldi	r24, 0x27	; 39
     f54:	38 07       	cpc	r19, r24
     f56:	89 e0       	ldi	r24, 0x09	; 9
     f58:	48 07       	cpc	r20, r24
     f5a:	80 e0       	ldi	r24, 0x00	; 0
     f5c:	58 07       	cpc	r21, r24
     f5e:	69 f7       	brne	.-38     	; 0xf3a <read_sonar+0x48>
		else
			break;
	}

	if(i==600000)
		ultrasonics[0] = 1;	//Indicates time out
     f60:	81 e0       	ldi	r24, 0x01	; 1
     f62:	90 e0       	ldi	r25, 0x00	; 0
     f64:	a0 e0       	ldi	r26, 0x00	; 0
     f66:	b0 e0       	ldi	r27, 0x00	; 0
     f68:	88 83       	st	Y, r24
     f6a:	99 83       	std	Y+1, r25	; 0x01
     f6c:	aa 83       	std	Y+2, r26	; 0x02
     f6e:	bb 83       	std	Y+3, r27	; 0x03

	//Falling edge found

	result_right=TCNT1;
     f70:	8c b5       	in	r24, 0x2c	; 44
     f72:	9d b5       	in	r25, 0x2d	; 45

	//Stop Timer
	TCCR1B=0x00;
     f74:	1e bc       	out	0x2e, r1	; 46

	if(result_right > 60000)
     f76:	81 56       	subi	r24, 0x61	; 97
     f78:	9a 4e       	sbci	r25, 0xEA	; 234
     f7a:	48 f0       	brcs	.+18     	; 0xf8e <read_sonar+0x9c>
		ultrasonics[0] = 2;	//No obstacle
     f7c:	82 e0       	ldi	r24, 0x02	; 2
     f7e:	90 e0       	ldi	r25, 0x00	; 0
     f80:	a0 e0       	ldi	r26, 0x00	; 0
     f82:	b0 e0       	ldi	r27, 0x00	; 0
     f84:	88 83       	st	Y, r24
     f86:	99 83       	std	Y+1, r25	; 0x01
     f88:	aa 83       	std	Y+2, r26	; 0x02
     f8a:	bb 83       	std	Y+3, r27	; 0x03
     f8c:	0c c0       	rjmp	.+24     	; 0xfa6 <read_sonar+0xb4>
	else
		ultrasonics[0] = i/58;
     f8e:	ca 01       	movw	r24, r20
     f90:	b9 01       	movw	r22, r18
     f92:	2a e3       	ldi	r18, 0x3A	; 58
     f94:	30 e0       	ldi	r19, 0x00	; 0
     f96:	40 e0       	ldi	r20, 0x00	; 0
     f98:	50 e0       	ldi	r21, 0x00	; 0
     f9a:	0e 94 12 0d 	call	0x1a24	; 0x1a24 <__udivmodsi4>
     f9e:	28 83       	st	Y, r18
     fa0:	39 83       	std	Y+1, r19	; 0x01
     fa2:	4a 83       	std	Y+2, r20	; 0x02
     fa4:	5b 83       	std	Y+3, r21	; 0x03
		

	// LEFT
	trigger_sonar_left();
     fa6:	0e 94 5f 07 	call	0xebe	; 0xebe <trigger_sonar_left>
     faa:	80 e0       	ldi	r24, 0x00	; 0
     fac:	90 e0       	ldi	r25, 0x00	; 0
     fae:	a0 e0       	ldi	r26, 0x00	; 0
     fb0:	b0 e0       	ldi	r27, 0x00	; 0
	i=0;
	
	for(i=0;i<600000;i++)
	{
		if(!(ECHOL_PIN & (1<<ECHOL_BIT))) 
     fb2:	9e 99       	sbic	0x13, 6	; 19
     fb4:	0f c0       	rjmp	.+30     	; 0xfd4 <read_sonar+0xe2>

	// LEFT
	trigger_sonar_left();
	i=0;
	
	for(i=0;i<600000;i++)
     fb6:	01 96       	adiw	r24, 0x01	; 1
     fb8:	a1 1d       	adc	r26, r1
     fba:	b1 1d       	adc	r27, r1
     fbc:	80 3c       	cpi	r24, 0xC0	; 192
     fbe:	27 e2       	ldi	r18, 0x27	; 39
     fc0:	92 07       	cpc	r25, r18
     fc2:	29 e0       	ldi	r18, 0x09	; 9
     fc4:	a2 07       	cpc	r26, r18
     fc6:	20 e0       	ldi	r18, 0x00	; 0
     fc8:	b2 07       	cpc	r27, r18
     fca:	99 f7       	brne	.-26     	; 0xfb2 <read_sonar+0xc0>
		else 
			break;		//High edge detected, so break.
	}

	if(i==600000)
		ultrasonics[1] = 0;	//Indicates time out
     fcc:	1c 82       	std	Y+4, r1	; 0x04
     fce:	1d 82       	std	Y+5, r1	; 0x05
     fd0:	1e 82       	std	Y+6, r1	; 0x06
     fd2:	1f 82       	std	Y+7, r1	; 0x07
	
	//High Edge Found

	//Setup Timer1
	TCCR1A=0X00;
     fd4:	1f bc       	out	0x2f, r1	; 47
	TCCR1B|=(1<<CS11) ;	//Prescaler = Fcpu/8
     fd6:	8e b5       	in	r24, 0x2e	; 46
     fd8:	82 60       	ori	r24, 0x02	; 2
     fda:	8e bd       	out	0x2e, r24	; 46
	TCNT1=0x00;			//Init counter
     fdc:	1d bc       	out	0x2d, r1	; 45
     fde:	1c bc       	out	0x2c, r1	; 44
     fe0:	20 e0       	ldi	r18, 0x00	; 0
     fe2:	30 e0       	ldi	r19, 0x00	; 0
     fe4:	40 e0       	ldi	r20, 0x00	; 0
     fe6:	50 e0       	ldi	r21, 0x00	; 0

	//Now wait for the falling edge
	for(i=0;i<600000;i++)
	{
		if((ECHOL_PIN & (1<<ECHOL_BIT)))
     fe8:	9e 9b       	sbis	0x13, 6	; 19
     fea:	16 c0       	rjmp	.+44     	; 0x1018 <read_sonar+0x126>
		{
			if(TCNT1 > 600000) break; else continue;
     fec:	8c b5       	in	r24, 0x2c	; 44
     fee:	9d b5       	in	r25, 0x2d	; 45
	TCCR1A=0X00;
	TCCR1B|=(1<<CS11) ;	//Prescaler = Fcpu/8
	TCNT1=0x00;			//Init counter

	//Now wait for the falling edge
	for(i=0;i<600000;i++)
     ff0:	2f 5f       	subi	r18, 0xFF	; 255
     ff2:	3f 4f       	sbci	r19, 0xFF	; 255
     ff4:	4f 4f       	sbci	r20, 0xFF	; 255
     ff6:	5f 4f       	sbci	r21, 0xFF	; 255
     ff8:	20 3c       	cpi	r18, 0xC0	; 192
     ffa:	67 e2       	ldi	r22, 0x27	; 39
     ffc:	36 07       	cpc	r19, r22
     ffe:	69 e0       	ldi	r22, 0x09	; 9
    1000:	46 07       	cpc	r20, r22
    1002:	60 e0       	ldi	r22, 0x00	; 0
    1004:	56 07       	cpc	r21, r22
    1006:	81 f7       	brne	.-32     	; 0xfe8 <read_sonar+0xf6>
		else
			break;
	}

	if(i==600000)
		ultrasonics[1] = 1;	//Indicates time out
    1008:	81 e0       	ldi	r24, 0x01	; 1
    100a:	90 e0       	ldi	r25, 0x00	; 0
    100c:	a0 e0       	ldi	r26, 0x00	; 0
    100e:	b0 e0       	ldi	r27, 0x00	; 0
    1010:	8c 83       	std	Y+4, r24	; 0x04
    1012:	9d 83       	std	Y+5, r25	; 0x05
    1014:	ae 83       	std	Y+6, r26	; 0x06
    1016:	bf 83       	std	Y+7, r27	; 0x07

	//Falling edge found

	result_left=TCNT1;
    1018:	8c b5       	in	r24, 0x2c	; 44
    101a:	9d b5       	in	r25, 0x2d	; 45

	//Stop Timer
	TCCR1B=0x00;
    101c:	1e bc       	out	0x2e, r1	; 46

	if(result_left > 60000)
    101e:	81 56       	subi	r24, 0x61	; 97
    1020:	9a 4e       	sbci	r25, 0xEA	; 234
    1022:	48 f0       	brcs	.+18     	; 0x1036 <read_sonar+0x144>
		ultrasonics[1] = 2;	//No obstacle
    1024:	82 e0       	ldi	r24, 0x02	; 2
    1026:	90 e0       	ldi	r25, 0x00	; 0
    1028:	a0 e0       	ldi	r26, 0x00	; 0
    102a:	b0 e0       	ldi	r27, 0x00	; 0
    102c:	8c 83       	std	Y+4, r24	; 0x04
    102e:	9d 83       	std	Y+5, r25	; 0x05
    1030:	ae 83       	std	Y+6, r26	; 0x06
    1032:	bf 83       	std	Y+7, r27	; 0x07
    1034:	0c c0       	rjmp	.+24     	; 0x104e <read_sonar+0x15c>
	else
		ultrasonics[1] = i/58;
    1036:	ca 01       	movw	r24, r20
    1038:	b9 01       	movw	r22, r18
    103a:	2a e3       	ldi	r18, 0x3A	; 58
    103c:	30 e0       	ldi	r19, 0x00	; 0
    103e:	40 e0       	ldi	r20, 0x00	; 0
    1040:	50 e0       	ldi	r21, 0x00	; 0
    1042:	0e 94 12 0d 	call	0x1a24	; 0x1a24 <__udivmodsi4>
    1046:	2c 83       	std	Y+4, r18	; 0x04
    1048:	3d 83       	std	Y+5, r19	; 0x05
    104a:	4e 83       	std	Y+6, r20	; 0x06
    104c:	5f 83       	std	Y+7, r21	; 0x07
    104e:	df 91       	pop	r29
    1050:	cf 91       	pop	r28
    1052:	08 95       	ret

00001054 <map_values>:
const double weights_out[OUTPUT_SIZE][HIDDEN_SIZE] = {
	{-2.16599511469715,	-1.20308188511324, 0.632717479384773, -1.65436533180512, -0.136132471238167},
	{1.30759079539261, 0.486704697620971, 0.137919809101367, -1.68646298537118, -0.326572646910357}
};

double map_values(double in_1, double max_in, double min_in, double max_out, double min_out) {
    1054:	2f 92       	push	r2
    1056:	3f 92       	push	r3
    1058:	4f 92       	push	r4
    105a:	5f 92       	push	r5
    105c:	6f 92       	push	r6
    105e:	7f 92       	push	r7
    1060:	8f 92       	push	r8
    1062:	9f 92       	push	r9
    1064:	af 92       	push	r10
    1066:	bf 92       	push	r11
    1068:	cf 92       	push	r12
    106a:	df 92       	push	r13
    106c:	ef 92       	push	r14
    106e:	ff 92       	push	r15
    1070:	0f 93       	push	r16
    1072:	1f 93       	push	r17
    1074:	df 93       	push	r29
    1076:	cf 93       	push	r28
    1078:	00 d0       	rcall	.+0      	; 0x107a <map_values+0x26>
    107a:	00 d0       	rcall	.+0      	; 0x107c <map_values+0x28>
    107c:	cd b7       	in	r28, 0x3d	; 61
    107e:	de b7       	in	r29, 0x3e	; 62
    1080:	3b 01       	movw	r6, r22
    1082:	4c 01       	movw	r8, r24
    1084:	29 83       	std	Y+1, r18	; 0x01
    1086:	3a 83       	std	Y+2, r19	; 0x02
    1088:	4b 83       	std	Y+3, r20	; 0x03
    108a:	5c 83       	std	Y+4, r21	; 0x04
    108c:	c6 01       	movw	r24, r12
    108e:	b5 01       	movw	r22, r10
    1090:	29 8c       	ldd	r2, Y+25	; 0x19
    1092:	3a 8c       	ldd	r3, Y+26	; 0x1a
    1094:	4b 8c       	ldd	r4, Y+27	; 0x1b
    1096:	5c 8c       	ldd	r5, Y+28	; 0x1c
    1098:	a2 01       	movw	r20, r4
    109a:	91 01       	movw	r18, r2
    109c:	0e 94 4f 0a 	call	0x149e	; 0x149e <__subsf3>
    10a0:	5b 01       	movw	r10, r22
    10a2:	6c 01       	movw	r12, r24
    10a4:	c4 01       	movw	r24, r8
    10a6:	b3 01       	movw	r22, r6
    10a8:	a8 01       	movw	r20, r16
    10aa:	97 01       	movw	r18, r14
    10ac:	0e 94 4f 0a 	call	0x149e	; 0x149e <__subsf3>
    10b0:	9b 01       	movw	r18, r22
    10b2:	ac 01       	movw	r20, r24
    10b4:	c6 01       	movw	r24, r12
    10b6:	b5 01       	movw	r22, r10
    10b8:	0e 94 a1 0c 	call	0x1942	; 0x1942 <__mulsf3>
    10bc:	5b 01       	movw	r10, r22
    10be:	6c 01       	movw	r12, r24
    10c0:	69 81       	ldd	r22, Y+1	; 0x01
    10c2:	7a 81       	ldd	r23, Y+2	; 0x02
    10c4:	8b 81       	ldd	r24, Y+3	; 0x03
    10c6:	9c 81       	ldd	r25, Y+4	; 0x04
    10c8:	a8 01       	movw	r20, r16
    10ca:	97 01       	movw	r18, r14
    10cc:	0e 94 4f 0a 	call	0x149e	; 0x149e <__subsf3>
    10d0:	9b 01       	movw	r18, r22
    10d2:	ac 01       	movw	r20, r24
    10d4:	c6 01       	movw	r24, r12
    10d6:	b5 01       	movw	r22, r10
    10d8:	0e 94 b4 0a 	call	0x1568	; 0x1568 <__divsf3>
    10dc:	a2 01       	movw	r20, r4
    10de:	91 01       	movw	r18, r2
    10e0:	0e 94 50 0a 	call	0x14a0	; 0x14a0 <__addsf3>
	return (max_out - min_out)*(in_1 - min_in) / (max_in - min_in) + min_out;
};
    10e4:	0f 90       	pop	r0
    10e6:	0f 90       	pop	r0
    10e8:	0f 90       	pop	r0
    10ea:	0f 90       	pop	r0
    10ec:	cf 91       	pop	r28
    10ee:	df 91       	pop	r29
    10f0:	1f 91       	pop	r17
    10f2:	0f 91       	pop	r16
    10f4:	ff 90       	pop	r15
    10f6:	ef 90       	pop	r14
    10f8:	df 90       	pop	r13
    10fa:	cf 90       	pop	r12
    10fc:	bf 90       	pop	r11
    10fe:	af 90       	pop	r10
    1100:	9f 90       	pop	r9
    1102:	8f 90       	pop	r8
    1104:	7f 90       	pop	r7
    1106:	6f 90       	pop	r6
    1108:	5f 90       	pop	r5
    110a:	4f 90       	pop	r4
    110c:	3f 90       	pop	r3
    110e:	2f 90       	pop	r2
    1110:	08 95       	ret

00001112 <network>:
void network(double output[], double ultra_left, double ultra_right, double PIR_left, double PIR_right)
{
    1112:	2f 92       	push	r2
    1114:	3f 92       	push	r3
    1116:	4f 92       	push	r4
    1118:	5f 92       	push	r5
    111a:	6f 92       	push	r6
    111c:	7f 92       	push	r7
    111e:	8f 92       	push	r8
    1120:	9f 92       	push	r9
    1122:	af 92       	push	r10
    1124:	bf 92       	push	r11
    1126:	cf 92       	push	r12
    1128:	df 92       	push	r13
    112a:	ef 92       	push	r14
    112c:	ff 92       	push	r15
    112e:	0f 93       	push	r16
    1130:	1f 93       	push	r17
    1132:	df 93       	push	r29
    1134:	cf 93       	push	r28
    1136:	cd b7       	in	r28, 0x3d	; 61
    1138:	de b7       	in	r29, 0x3e	; 62
    113a:	a8 97       	sbiw	r28, 0x28	; 40
    113c:	0f b6       	in	r0, 0x3f	; 63
    113e:	f8 94       	cli
    1140:	de bf       	out	0x3e, r29	; 62
    1142:	0f be       	out	0x3f, r0	; 63
    1144:	cd bf       	out	0x3d, r28	; 61
    1146:	9e a3       	std	Y+38, r25	; 0x26
    1148:	8d a3       	std	Y+37, r24	; 0x25
	 //normalization
	 double input[INPUT_SIZE] = {ultra_left, ultra_right, PIR_left, PIR_right};
    114a:	49 83       	std	Y+1, r20	; 0x01
    114c:	5a 83       	std	Y+2, r21	; 0x02
    114e:	6b 83       	std	Y+3, r22	; 0x03
    1150:	7c 83       	std	Y+4, r23	; 0x04
    1152:	0d 83       	std	Y+5, r16	; 0x05
    1154:	1e 83       	std	Y+6, r17	; 0x06
    1156:	2f 83       	std	Y+7, r18	; 0x07
    1158:	38 87       	std	Y+8, r19	; 0x08
    115a:	c9 86       	std	Y+9, r12	; 0x09
    115c:	da 86       	std	Y+10, r13	; 0x0a
    115e:	eb 86       	std	Y+11, r14	; 0x0b
    1160:	fc 86       	std	Y+12, r15	; 0x0c
    1162:	8d 86       	std	Y+13, r8	; 0x0d
    1164:	9e 86       	std	Y+14, r9	; 0x0e
    1166:	af 86       	std	Y+15, r10	; 0x0f
    1168:	b8 8a       	std	Y+16, r11	; 0x10
    116a:	3e 01       	movw	r6, r28
    116c:	08 94       	sec
    116e:	61 1c       	adc	r6, r1
    1170:	71 1c       	adc	r7, r1
	 for (int i = 0; i < INPUT_SIZE; i++) {
		 input[i] = map_values(input[i], 1, 0, 1, -1);
    1172:	0f 2e       	mov	r0, r31
    1174:	f0 e0       	ldi	r31, 0x00	; 0
    1176:	2f 2e       	mov	r2, r31
    1178:	f0 e0       	ldi	r31, 0x00	; 0
    117a:	3f 2e       	mov	r3, r31
    117c:	f0 e8       	ldi	r31, 0x80	; 128
    117e:	4f 2e       	mov	r4, r31
    1180:	ff eb       	ldi	r31, 0xBF	; 191
    1182:	5f 2e       	mov	r5, r31
    1184:	f0 2d       	mov	r31, r0
};
void network(double output[], double ultra_left, double ultra_right, double PIR_left, double PIR_right)
{
	 //normalization
	 double input[INPUT_SIZE] = {ultra_left, ultra_right, PIR_left, PIR_right};
	 for (int i = 0; i < INPUT_SIZE; i++) {
    1186:	41 e1       	ldi	r20, 0x11	; 17
    1188:	84 2e       	mov	r8, r20
    118a:	91 2c       	mov	r9, r1
    118c:	8c 0e       	add	r8, r28
    118e:	9d 1e       	adc	r9, r29
		 input[i] = map_values(input[i], 1, 0, 1, -1);
    1190:	00 d0       	rcall	.+0      	; 0x1192 <network+0x80>
    1192:	00 d0       	rcall	.+0      	; 0x1194 <network+0x82>
    1194:	f3 01       	movw	r30, r6
    1196:	60 81       	ld	r22, Z
    1198:	71 81       	ldd	r23, Z+1	; 0x01
    119a:	82 81       	ldd	r24, Z+2	; 0x02
    119c:	93 81       	ldd	r25, Z+3	; 0x03
    119e:	ed b7       	in	r30, 0x3d	; 61
    11a0:	fe b7       	in	r31, 0x3e	; 62
    11a2:	21 82       	std	Z+1, r2	; 0x01
    11a4:	32 82       	std	Z+2, r3	; 0x02
    11a6:	43 82       	std	Z+3, r4	; 0x03
    11a8:	54 82       	std	Z+4, r5	; 0x04
    11aa:	20 e0       	ldi	r18, 0x00	; 0
    11ac:	30 e0       	ldi	r19, 0x00	; 0
    11ae:	40 e8       	ldi	r20, 0x80	; 128
    11b0:	5f e3       	ldi	r21, 0x3F	; 63
    11b2:	0f 2e       	mov	r0, r31
    11b4:	f0 e0       	ldi	r31, 0x00	; 0
    11b6:	ef 2e       	mov	r14, r31
    11b8:	f0 e0       	ldi	r31, 0x00	; 0
    11ba:	ff 2e       	mov	r15, r31
    11bc:	f0 e0       	ldi	r31, 0x00	; 0
    11be:	0f 2f       	mov	r16, r31
    11c0:	f0 e0       	ldi	r31, 0x00	; 0
    11c2:	1f 2f       	mov	r17, r31
    11c4:	f0 2d       	mov	r31, r0
    11c6:	59 01       	movw	r10, r18
    11c8:	6a 01       	movw	r12, r20
    11ca:	0e 94 2a 08 	call	0x1054	; 0x1054 <map_values>
    11ce:	0f 90       	pop	r0
    11d0:	0f 90       	pop	r0
    11d2:	0f 90       	pop	r0
    11d4:	0f 90       	pop	r0
    11d6:	f3 01       	movw	r30, r6
    11d8:	61 93       	st	Z+, r22
    11da:	71 93       	st	Z+, r23
    11dc:	81 93       	st	Z+, r24
    11de:	91 93       	st	Z+, r25
    11e0:	3f 01       	movw	r6, r30
};
void network(double output[], double ultra_left, double ultra_right, double PIR_left, double PIR_right)
{
	 //normalization
	 double input[INPUT_SIZE] = {ultra_left, ultra_right, PIR_left, PIR_right};
	 for (int i = 0; i < INPUT_SIZE; i++) {
    11e2:	e8 15       	cp	r30, r8
    11e4:	f9 05       	cpc	r31, r9
    11e6:	a1 f6       	brne	.-88     	; 0x1190 <network+0x7e>
		 input[i] = map_values(input[i], 1, 0, 1, -1);
	 }

	 double hidden_result[HIDDEN_SIZE] = { 0,0,0,0,0 };
    11e8:	84 e1       	ldi	r24, 0x14	; 20
    11ea:	11 92       	st	Z+, r1
    11ec:	8a 95       	dec	r24
    11ee:	e9 f7       	brne	.-6      	; 0x11ea <network+0xd8>
    11f0:	38 ea       	ldi	r19, 0xA8	; 168
    11f2:	23 2e       	mov	r2, r19
    11f4:	31 e0       	ldi	r19, 0x01	; 1
    11f6:	33 2e       	mov	r3, r19
    11f8:	23 01       	movw	r4, r6
    11fa:	88 24       	eor	r8, r8
    11fc:	99 24       	eor	r9, r9
    11fe:	62 c0       	rjmp	.+196    	; 0x12c4 <network+0x1b2>
	// compute hidden layer
	for (int i = 0; i<HIDDEN_SIZE; i++) {
		for (int j = 0; j<INPUT_SIZE; j++) {
			hidden_result[i] += input[j] * weights_hidden[i][j];
    1200:	f5 01       	movw	r30, r10
    1202:	61 91       	ld	r22, Z+
    1204:	71 91       	ld	r23, Z+
    1206:	81 91       	ld	r24, Z+
    1208:	91 91       	ld	r25, Z+
    120a:	5f 01       	movw	r10, r30
    120c:	f6 01       	movw	r30, r12
    120e:	21 91       	ld	r18, Z+
    1210:	31 91       	ld	r19, Z+
    1212:	41 91       	ld	r20, Z+
    1214:	51 91       	ld	r21, Z+
    1216:	6f 01       	movw	r12, r30
    1218:	0e 94 a1 0c 	call	0x1942	; 0x1942 <__mulsf3>
    121c:	9b 01       	movw	r18, r22
    121e:	ac 01       	movw	r20, r24
    1220:	c8 01       	movw	r24, r16
    1222:	b7 01       	movw	r22, r14
    1224:	0e 94 50 0a 	call	0x14a0	; 0x14a0 <__addsf3>
    1228:	7b 01       	movw	r14, r22
    122a:	8c 01       	movw	r16, r24
	 }

	 double hidden_result[HIDDEN_SIZE] = { 0,0,0,0,0 };
	// compute hidden layer
	for (int i = 0; i<HIDDEN_SIZE; i++) {
		for (int j = 0; j<INPUT_SIZE; j++) {
    122c:	a6 14       	cp	r10, r6
    122e:	b7 04       	cpc	r11, r7
    1230:	39 f7       	brne	.-50     	; 0x1200 <network+0xee>
    1232:	cb 01       	movw	r24, r22
    1234:	d8 01       	movw	r26, r16
    1236:	f2 01       	movw	r30, r4
    1238:	80 83       	st	Z, r24
    123a:	91 83       	std	Z+1, r25	; 0x01
    123c:	a2 83       	std	Z+2, r26	; 0x02
    123e:	b3 83       	std	Z+3, r27	; 0x03
			hidden_result[i] += input[j] * weights_hidden[i][j];
		}
		hidden_result[i] += bias_hidden[i];
		hidden_result[i] = 2 / (1 + exp(-2 * hidden_result[i])) - 1;
    1240:	c8 01       	movw	r24, r16
    1242:	b7 01       	movw	r22, r14
    1244:	f1 01       	movw	r30, r2
    1246:	21 91       	ld	r18, Z+
    1248:	31 91       	ld	r19, Z+
    124a:	41 91       	ld	r20, Z+
    124c:	51 91       	ld	r21, Z+
    124e:	1f 01       	movw	r2, r30
    1250:	0e 94 50 0a 	call	0x14a0	; 0x14a0 <__addsf3>
    1254:	20 e0       	ldi	r18, 0x00	; 0
    1256:	30 e0       	ldi	r19, 0x00	; 0
    1258:	40 e0       	ldi	r20, 0x00	; 0
    125a:	50 ec       	ldi	r21, 0xC0	; 192
    125c:	0e 94 a1 0c 	call	0x1942	; 0x1942 <__mulsf3>
    1260:	0e 94 21 0b 	call	0x1642	; 0x1642 <exp>
    1264:	20 e0       	ldi	r18, 0x00	; 0
    1266:	30 e0       	ldi	r19, 0x00	; 0
    1268:	40 e8       	ldi	r20, 0x80	; 128
    126a:	5f e3       	ldi	r21, 0x3F	; 63
    126c:	0e 94 50 0a 	call	0x14a0	; 0x14a0 <__addsf3>
    1270:	9b 01       	movw	r18, r22
    1272:	ac 01       	movw	r20, r24
    1274:	60 e0       	ldi	r22, 0x00	; 0
    1276:	70 e0       	ldi	r23, 0x00	; 0
    1278:	80 e0       	ldi	r24, 0x00	; 0
    127a:	90 e4       	ldi	r25, 0x40	; 64
    127c:	0e 94 b4 0a 	call	0x1568	; 0x1568 <__divsf3>
    1280:	20 e0       	ldi	r18, 0x00	; 0
    1282:	30 e0       	ldi	r19, 0x00	; 0
    1284:	40 e8       	ldi	r20, 0x80	; 128
    1286:	5f e3       	ldi	r21, 0x3F	; 63
    1288:	0e 94 4f 0a 	call	0x149e	; 0x149e <__subsf3>
    128c:	f2 01       	movw	r30, r4
    128e:	61 93       	st	Z+, r22
    1290:	71 93       	st	Z+, r23
    1292:	81 93       	st	Z+, r24
    1294:	91 93       	st	Z+, r25
    1296:	2f 01       	movw	r4, r30
		 input[i] = map_values(input[i], 1, 0, 1, -1);
	 }

	 double hidden_result[HIDDEN_SIZE] = { 0,0,0,0,0 };
	// compute hidden layer
	for (int i = 0; i<HIDDEN_SIZE; i++) {
    1298:	08 94       	sec
    129a:	81 1c       	adc	r8, r1
    129c:	91 1c       	adc	r9, r1
    129e:	f5 e0       	ldi	r31, 0x05	; 5
    12a0:	8f 16       	cp	r8, r31
    12a2:	91 04       	cpc	r9, r1
    12a4:	79 f4       	brne	.+30     	; 0x12c4 <network+0x1b2>
    12a6:	2a e7       	ldi	r18, 0x7A	; 122
    12a8:	42 2e       	mov	r4, r18
    12aa:	23 e0       	ldi	r18, 0x03	; 3
    12ac:	52 2e       	mov	r5, r18
    12ae:	9c eb       	ldi	r25, 0xBC	; 188
    12b0:	29 2e       	mov	r2, r25
    12b2:	91 e0       	ldi	r25, 0x01	; 1
    12b4:	39 2e       	mov	r3, r25
    12b6:	88 24       	eor	r8, r8
    12b8:	99 24       	eor	r9, r9
		hidden_result[i] = 2 / (1 + exp(-2 * hidden_result[i])) - 1;
	}
	static double outer_result[OUTPUT_SIZE] = { 0,0 };
	// compute outer layer
	for (int m = 0;  m < OUTPUT_SIZE; m++) {
		for (int n = 0; n < HIDDEN_SIZE; n++) {
    12ba:	ce 01       	movw	r24, r28
    12bc:	85 96       	adiw	r24, 0x25	; 37
    12be:	98 a7       	std	Y+40, r25	; 0x28
    12c0:	8f a3       	std	Y+39, r24	; 0x27
    12c2:	62 c0       	rjmp	.+196    	; 0x1388 <network+0x276>
		 input[i] = map_values(input[i], 1, 0, 1, -1);
	 }

	 double hidden_result[HIDDEN_SIZE] = { 0,0,0,0,0 };
	// compute hidden layer
	for (int i = 0; i<HIDDEN_SIZE; i++) {
    12c4:	f2 01       	movw	r30, r4
    12c6:	e0 80       	ld	r14, Z
    12c8:	f1 80       	ldd	r15, Z+1	; 0x01
    12ca:	02 81       	ldd	r16, Z+2	; 0x02
    12cc:	13 81       	ldd	r17, Z+3	; 0x03
    12ce:	64 01       	movw	r12, r8
    12d0:	84 e0       	ldi	r24, 0x04	; 4
    12d2:	cc 0c       	add	r12, r12
    12d4:	dd 1c       	adc	r13, r13
    12d6:	8a 95       	dec	r24
    12d8:	e1 f7       	brne	.-8      	; 0x12d2 <network+0x1c0>
    12da:	88 e5       	ldi	r24, 0x58	; 88
    12dc:	91 e0       	ldi	r25, 0x01	; 1
    12de:	c8 0e       	add	r12, r24
    12e0:	d9 1e       	adc	r13, r25
    12e2:	5e 01       	movw	r10, r28
    12e4:	08 94       	sec
    12e6:	a1 1c       	adc	r10, r1
    12e8:	b1 1c       	adc	r11, r1
    12ea:	8a cf       	rjmp	.-236    	; 0x1200 <network+0xee>
	}
	static double outer_result[OUTPUT_SIZE] = { 0,0 };
	// compute outer layer
	for (int m = 0;  m < OUTPUT_SIZE; m++) {
		for (int n = 0; n < HIDDEN_SIZE; n++) {
			outer_result[m] += hidden_result[n] * weights_out[m][n];
    12ec:	f5 01       	movw	r30, r10
    12ee:	61 91       	ld	r22, Z+
    12f0:	71 91       	ld	r23, Z+
    12f2:	81 91       	ld	r24, Z+
    12f4:	91 91       	ld	r25, Z+
    12f6:	5f 01       	movw	r10, r30
    12f8:	f6 01       	movw	r30, r12
    12fa:	21 91       	ld	r18, Z+
    12fc:	31 91       	ld	r19, Z+
    12fe:	41 91       	ld	r20, Z+
    1300:	51 91       	ld	r21, Z+
    1302:	6f 01       	movw	r12, r30
    1304:	0e 94 a1 0c 	call	0x1942	; 0x1942 <__mulsf3>
    1308:	9b 01       	movw	r18, r22
    130a:	ac 01       	movw	r20, r24
    130c:	c8 01       	movw	r24, r16
    130e:	b7 01       	movw	r22, r14
    1310:	0e 94 50 0a 	call	0x14a0	; 0x14a0 <__addsf3>
    1314:	7b 01       	movw	r14, r22
    1316:	8c 01       	movw	r16, r24
		hidden_result[i] = 2 / (1 + exp(-2 * hidden_result[i])) - 1;
	}
	static double outer_result[OUTPUT_SIZE] = { 0,0 };
	// compute outer layer
	for (int m = 0;  m < OUTPUT_SIZE; m++) {
		for (int n = 0; n < HIDDEN_SIZE; n++) {
    1318:	8f a1       	ldd	r24, Y+39	; 0x27
    131a:	98 a5       	ldd	r25, Y+40	; 0x28
    131c:	a8 16       	cp	r10, r24
    131e:	b9 06       	cpc	r11, r25
    1320:	29 f7       	brne	.-54     	; 0x12ec <network+0x1da>
			outer_result[m] += hidden_result[n] * weights_out[m][n];
		}
		outer_result[m] += bias_out[m];
		outer_result[m] = 2 / (1 + exp(-2 * outer_result[m])) - 1;
    1322:	c8 01       	movw	r24, r16
    1324:	b7 01       	movw	r22, r14
    1326:	f1 01       	movw	r30, r2
    1328:	21 91       	ld	r18, Z+
    132a:	31 91       	ld	r19, Z+
    132c:	41 91       	ld	r20, Z+
    132e:	51 91       	ld	r21, Z+
    1330:	1f 01       	movw	r2, r30
    1332:	0e 94 50 0a 	call	0x14a0	; 0x14a0 <__addsf3>
    1336:	20 e0       	ldi	r18, 0x00	; 0
    1338:	30 e0       	ldi	r19, 0x00	; 0
    133a:	40 e0       	ldi	r20, 0x00	; 0
    133c:	50 ec       	ldi	r21, 0xC0	; 192
    133e:	0e 94 a1 0c 	call	0x1942	; 0x1942 <__mulsf3>
    1342:	0e 94 21 0b 	call	0x1642	; 0x1642 <exp>
    1346:	20 e0       	ldi	r18, 0x00	; 0
    1348:	30 e0       	ldi	r19, 0x00	; 0
    134a:	40 e8       	ldi	r20, 0x80	; 128
    134c:	5f e3       	ldi	r21, 0x3F	; 63
    134e:	0e 94 50 0a 	call	0x14a0	; 0x14a0 <__addsf3>
    1352:	9b 01       	movw	r18, r22
    1354:	ac 01       	movw	r20, r24
    1356:	60 e0       	ldi	r22, 0x00	; 0
    1358:	70 e0       	ldi	r23, 0x00	; 0
    135a:	80 e0       	ldi	r24, 0x00	; 0
    135c:	90 e4       	ldi	r25, 0x40	; 64
    135e:	0e 94 b4 0a 	call	0x1568	; 0x1568 <__divsf3>
    1362:	20 e0       	ldi	r18, 0x00	; 0
    1364:	30 e0       	ldi	r19, 0x00	; 0
    1366:	40 e8       	ldi	r20, 0x80	; 128
    1368:	5f e3       	ldi	r21, 0x3F	; 63
    136a:	0e 94 4f 0a 	call	0x149e	; 0x149e <__subsf3>
    136e:	f2 01       	movw	r30, r4
    1370:	61 93       	st	Z+, r22
    1372:	71 93       	st	Z+, r23
    1374:	81 93       	st	Z+, r24
    1376:	91 93       	st	Z+, r25
    1378:	2f 01       	movw	r4, r30
		hidden_result[i] += bias_hidden[i];
		hidden_result[i] = 2 / (1 + exp(-2 * hidden_result[i])) - 1;
	}
	static double outer_result[OUTPUT_SIZE] = { 0,0 };
	// compute outer layer
	for (int m = 0;  m < OUTPUT_SIZE; m++) {
    137a:	08 94       	sec
    137c:	81 1c       	adc	r8, r1
    137e:	91 1c       	adc	r9, r1
    1380:	f2 e0       	ldi	r31, 0x02	; 2
    1382:	8f 16       	cp	r8, r31
    1384:	91 04       	cpc	r9, r1
    1386:	a1 f0       	breq	.+40     	; 0x13b0 <network+0x29e>
    1388:	f2 01       	movw	r30, r4
    138a:	e0 80       	ld	r14, Z
    138c:	f1 80       	ldd	r15, Z+1	; 0x01
    138e:	02 81       	ldd	r16, Z+2	; 0x02
    1390:	13 81       	ldd	r17, Z+3	; 0x03
    1392:	84 e1       	ldi	r24, 0x14	; 20
    1394:	90 e0       	ldi	r25, 0x00	; 0
    1396:	88 9e       	mul	r8, r24
    1398:	60 01       	movw	r12, r0
    139a:	89 9e       	mul	r8, r25
    139c:	d0 0c       	add	r13, r0
    139e:	98 9e       	mul	r9, r24
    13a0:	d0 0c       	add	r13, r0
    13a2:	11 24       	eor	r1, r1
    13a4:	e4 ec       	ldi	r30, 0xC4	; 196
    13a6:	f1 e0       	ldi	r31, 0x01	; 1
    13a8:	ce 0e       	add	r12, r30
    13aa:	df 1e       	adc	r13, r31
    13ac:	53 01       	movw	r10, r6
    13ae:	9e cf       	rjmp	.-196    	; 0x12ec <network+0x1da>
		outer_result[m] += bias_out[m];
		outer_result[m] = 2 / (1 + exp(-2 * outer_result[m])) - 1;
	}
	//denormalization
	for (int i = 0; i < OUTPUT_SIZE; i++) {
		outer_result[i] = map_values(outer_result[i], 1, -1, 1, 0);
    13b0:	00 d0       	rcall	.+0      	; 0x13b2 <network+0x2a0>
    13b2:	00 d0       	rcall	.+0      	; 0x13b4 <network+0x2a2>
    13b4:	60 91 7a 03 	lds	r22, 0x037A
    13b8:	70 91 7b 03 	lds	r23, 0x037B
    13bc:	80 91 7c 03 	lds	r24, 0x037C
    13c0:	90 91 7d 03 	lds	r25, 0x037D
    13c4:	0f 2e       	mov	r0, r31
    13c6:	f0 e0       	ldi	r31, 0x00	; 0
    13c8:	6f 2e       	mov	r6, r31
    13ca:	f0 e0       	ldi	r31, 0x00	; 0
    13cc:	7f 2e       	mov	r7, r31
    13ce:	f0 e0       	ldi	r31, 0x00	; 0
    13d0:	8f 2e       	mov	r8, r31
    13d2:	f0 e0       	ldi	r31, 0x00	; 0
    13d4:	9f 2e       	mov	r9, r31
    13d6:	f0 2d       	mov	r31, r0
    13d8:	ed b7       	in	r30, 0x3d	; 61
    13da:	fe b7       	in	r31, 0x3e	; 62
    13dc:	61 82       	std	Z+1, r6	; 0x01
    13de:	72 82       	std	Z+2, r7	; 0x02
    13e0:	83 82       	std	Z+3, r8	; 0x03
    13e2:	94 82       	std	Z+4, r9	; 0x04
    13e4:	20 e0       	ldi	r18, 0x00	; 0
    13e6:	30 e0       	ldi	r19, 0x00	; 0
    13e8:	40 e8       	ldi	r20, 0x80	; 128
    13ea:	5f e3       	ldi	r21, 0x3F	; 63
    13ec:	0f 2e       	mov	r0, r31
    13ee:	f0 e0       	ldi	r31, 0x00	; 0
    13f0:	ef 2e       	mov	r14, r31
    13f2:	f0 e0       	ldi	r31, 0x00	; 0
    13f4:	ff 2e       	mov	r15, r31
    13f6:	f0 e8       	ldi	r31, 0x80	; 128
    13f8:	0f 2f       	mov	r16, r31
    13fa:	ff eb       	ldi	r31, 0xBF	; 191
    13fc:	1f 2f       	mov	r17, r31
    13fe:	f0 2d       	mov	r31, r0
    1400:	59 01       	movw	r10, r18
    1402:	6a 01       	movw	r12, r20
    1404:	0e 94 2a 08 	call	0x1054	; 0x1054 <map_values>
    1408:	1b 01       	movw	r2, r22
    140a:	2c 01       	movw	r4, r24
    140c:	60 93 7a 03 	sts	0x037A, r22
    1410:	70 93 7b 03 	sts	0x037B, r23
    1414:	80 93 7c 03 	sts	0x037C, r24
    1418:	90 93 7d 03 	sts	0x037D, r25
    141c:	60 91 7e 03 	lds	r22, 0x037E
    1420:	70 91 7f 03 	lds	r23, 0x037F
    1424:	80 91 80 03 	lds	r24, 0x0380
    1428:	90 91 81 03 	lds	r25, 0x0381
    142c:	ed b7       	in	r30, 0x3d	; 61
    142e:	fe b7       	in	r31, 0x3e	; 62
    1430:	61 82       	std	Z+1, r6	; 0x01
    1432:	72 82       	std	Z+2, r7	; 0x02
    1434:	83 82       	std	Z+3, r8	; 0x03
    1436:	94 82       	std	Z+4, r9	; 0x04
    1438:	a6 01       	movw	r20, r12
    143a:	95 01       	movw	r18, r10
    143c:	0e 94 2a 08 	call	0x1054	; 0x1054 <map_values>
    1440:	0f 90       	pop	r0
    1442:	0f 90       	pop	r0
    1444:	0f 90       	pop	r0
    1446:	0f 90       	pop	r0
    1448:	60 93 7e 03 	sts	0x037E, r22
    144c:	70 93 7f 03 	sts	0x037F, r23
    1450:	80 93 80 03 	sts	0x0380, r24
    1454:	90 93 81 03 	sts	0x0381, r25
	}
	
	output[0] = outer_result[0];
    1458:	ed a1       	ldd	r30, Y+37	; 0x25
    145a:	fe a1       	ldd	r31, Y+38	; 0x26
    145c:	20 82       	st	Z, r2
    145e:	31 82       	std	Z+1, r3	; 0x01
    1460:	42 82       	std	Z+2, r4	; 0x02
    1462:	53 82       	std	Z+3, r5	; 0x03
	output[1] = outer_result[1];
    1464:	64 83       	std	Z+4, r22	; 0x04
    1466:	75 83       	std	Z+5, r23	; 0x05
    1468:	86 83       	std	Z+6, r24	; 0x06
    146a:	97 83       	std	Z+7, r25	; 0x07
}
    146c:	a8 96       	adiw	r28, 0x28	; 40
    146e:	0f b6       	in	r0, 0x3f	; 63
    1470:	f8 94       	cli
    1472:	de bf       	out	0x3e, r29	; 62
    1474:	0f be       	out	0x3f, r0	; 63
    1476:	cd bf       	out	0x3d, r28	; 61
    1478:	cf 91       	pop	r28
    147a:	df 91       	pop	r29
    147c:	1f 91       	pop	r17
    147e:	0f 91       	pop	r16
    1480:	ff 90       	pop	r15
    1482:	ef 90       	pop	r14
    1484:	df 90       	pop	r13
    1486:	cf 90       	pop	r12
    1488:	bf 90       	pop	r11
    148a:	af 90       	pop	r10
    148c:	9f 90       	pop	r9
    148e:	8f 90       	pop	r8
    1490:	7f 90       	pop	r7
    1492:	6f 90       	pop	r6
    1494:	5f 90       	pop	r5
    1496:	4f 90       	pop	r4
    1498:	3f 90       	pop	r3
    149a:	2f 90       	pop	r2
    149c:	08 95       	ret

0000149e <__subsf3>:
    149e:	50 58       	subi	r21, 0x80	; 128

000014a0 <__addsf3>:
    14a0:	bb 27       	eor	r27, r27
    14a2:	aa 27       	eor	r26, r26
    14a4:	0e d0       	rcall	.+28     	; 0x14c2 <__addsf3x>
    14a6:	a3 c1       	rjmp	.+838    	; 0x17ee <__fp_round>
    14a8:	94 d1       	rcall	.+808    	; 0x17d2 <__fp_pscA>
    14aa:	30 f0       	brcs	.+12     	; 0x14b8 <__addsf3+0x18>
    14ac:	99 d1       	rcall	.+818    	; 0x17e0 <__fp_pscB>
    14ae:	20 f0       	brcs	.+8      	; 0x14b8 <__addsf3+0x18>
    14b0:	31 f4       	brne	.+12     	; 0x14be <__addsf3+0x1e>
    14b2:	9f 3f       	cpi	r25, 0xFF	; 255
    14b4:	11 f4       	brne	.+4      	; 0x14ba <__addsf3+0x1a>
    14b6:	1e f4       	brtc	.+6      	; 0x14be <__addsf3+0x1e>
    14b8:	64 c1       	rjmp	.+712    	; 0x1782 <__fp_nan>
    14ba:	0e f4       	brtc	.+2      	; 0x14be <__addsf3+0x1e>
    14bc:	e0 95       	com	r30
    14be:	e7 fb       	bst	r30, 7
    14c0:	5a c1       	rjmp	.+692    	; 0x1776 <__fp_inf>

000014c2 <__addsf3x>:
    14c2:	e9 2f       	mov	r30, r25
    14c4:	a5 d1       	rcall	.+842    	; 0x1810 <__fp_split3>
    14c6:	80 f3       	brcs	.-32     	; 0x14a8 <__addsf3+0x8>
    14c8:	ba 17       	cp	r27, r26
    14ca:	62 07       	cpc	r22, r18
    14cc:	73 07       	cpc	r23, r19
    14ce:	84 07       	cpc	r24, r20
    14d0:	95 07       	cpc	r25, r21
    14d2:	18 f0       	brcs	.+6      	; 0x14da <__addsf3x+0x18>
    14d4:	71 f4       	brne	.+28     	; 0x14f2 <__addsf3x+0x30>
    14d6:	9e f5       	brtc	.+102    	; 0x153e <__addsf3x+0x7c>
    14d8:	bd c1       	rjmp	.+890    	; 0x1854 <__fp_zero>
    14da:	0e f4       	brtc	.+2      	; 0x14de <__addsf3x+0x1c>
    14dc:	e0 95       	com	r30
    14de:	0b 2e       	mov	r0, r27
    14e0:	ba 2f       	mov	r27, r26
    14e2:	a0 2d       	mov	r26, r0
    14e4:	0b 01       	movw	r0, r22
    14e6:	b9 01       	movw	r22, r18
    14e8:	90 01       	movw	r18, r0
    14ea:	0c 01       	movw	r0, r24
    14ec:	ca 01       	movw	r24, r20
    14ee:	a0 01       	movw	r20, r0
    14f0:	11 24       	eor	r1, r1
    14f2:	ff 27       	eor	r31, r31
    14f4:	59 1b       	sub	r21, r25
    14f6:	99 f0       	breq	.+38     	; 0x151e <__addsf3x+0x5c>
    14f8:	59 3f       	cpi	r21, 0xF9	; 249
    14fa:	50 f4       	brcc	.+20     	; 0x1510 <__addsf3x+0x4e>
    14fc:	50 3e       	cpi	r21, 0xE0	; 224
    14fe:	68 f1       	brcs	.+90     	; 0x155a <__addsf3x+0x98>
    1500:	1a 16       	cp	r1, r26
    1502:	f0 40       	sbci	r31, 0x00	; 0
    1504:	a2 2f       	mov	r26, r18
    1506:	23 2f       	mov	r18, r19
    1508:	34 2f       	mov	r19, r20
    150a:	44 27       	eor	r20, r20
    150c:	58 5f       	subi	r21, 0xF8	; 248
    150e:	f3 cf       	rjmp	.-26     	; 0x14f6 <__addsf3x+0x34>
    1510:	46 95       	lsr	r20
    1512:	37 95       	ror	r19
    1514:	27 95       	ror	r18
    1516:	a7 95       	ror	r26
    1518:	f0 40       	sbci	r31, 0x00	; 0
    151a:	53 95       	inc	r21
    151c:	c9 f7       	brne	.-14     	; 0x1510 <__addsf3x+0x4e>
    151e:	7e f4       	brtc	.+30     	; 0x153e <__addsf3x+0x7c>
    1520:	1f 16       	cp	r1, r31
    1522:	ba 0b       	sbc	r27, r26
    1524:	62 0b       	sbc	r22, r18
    1526:	73 0b       	sbc	r23, r19
    1528:	84 0b       	sbc	r24, r20
    152a:	ba f0       	brmi	.+46     	; 0x155a <__addsf3x+0x98>
    152c:	91 50       	subi	r25, 0x01	; 1
    152e:	a1 f0       	breq	.+40     	; 0x1558 <__addsf3x+0x96>
    1530:	ff 0f       	add	r31, r31
    1532:	bb 1f       	adc	r27, r27
    1534:	66 1f       	adc	r22, r22
    1536:	77 1f       	adc	r23, r23
    1538:	88 1f       	adc	r24, r24
    153a:	c2 f7       	brpl	.-16     	; 0x152c <__addsf3x+0x6a>
    153c:	0e c0       	rjmp	.+28     	; 0x155a <__addsf3x+0x98>
    153e:	ba 0f       	add	r27, r26
    1540:	62 1f       	adc	r22, r18
    1542:	73 1f       	adc	r23, r19
    1544:	84 1f       	adc	r24, r20
    1546:	48 f4       	brcc	.+18     	; 0x155a <__addsf3x+0x98>
    1548:	87 95       	ror	r24
    154a:	77 95       	ror	r23
    154c:	67 95       	ror	r22
    154e:	b7 95       	ror	r27
    1550:	f7 95       	ror	r31
    1552:	9e 3f       	cpi	r25, 0xFE	; 254
    1554:	08 f0       	brcs	.+2      	; 0x1558 <__addsf3x+0x96>
    1556:	b3 cf       	rjmp	.-154    	; 0x14be <__addsf3+0x1e>
    1558:	93 95       	inc	r25
    155a:	88 0f       	add	r24, r24
    155c:	08 f0       	brcs	.+2      	; 0x1560 <__addsf3x+0x9e>
    155e:	99 27       	eor	r25, r25
    1560:	ee 0f       	add	r30, r30
    1562:	97 95       	ror	r25
    1564:	87 95       	ror	r24
    1566:	08 95       	ret

00001568 <__divsf3>:
    1568:	0c d0       	rcall	.+24     	; 0x1582 <__divsf3x>
    156a:	41 c1       	rjmp	.+642    	; 0x17ee <__fp_round>
    156c:	39 d1       	rcall	.+626    	; 0x17e0 <__fp_pscB>
    156e:	40 f0       	brcs	.+16     	; 0x1580 <__divsf3+0x18>
    1570:	30 d1       	rcall	.+608    	; 0x17d2 <__fp_pscA>
    1572:	30 f0       	brcs	.+12     	; 0x1580 <__divsf3+0x18>
    1574:	21 f4       	brne	.+8      	; 0x157e <__divsf3+0x16>
    1576:	5f 3f       	cpi	r21, 0xFF	; 255
    1578:	19 f0       	breq	.+6      	; 0x1580 <__divsf3+0x18>
    157a:	fd c0       	rjmp	.+506    	; 0x1776 <__fp_inf>
    157c:	51 11       	cpse	r21, r1
    157e:	6b c1       	rjmp	.+726    	; 0x1856 <__fp_szero>
    1580:	00 c1       	rjmp	.+512    	; 0x1782 <__fp_nan>

00001582 <__divsf3x>:
    1582:	46 d1       	rcall	.+652    	; 0x1810 <__fp_split3>
    1584:	98 f3       	brcs	.-26     	; 0x156c <__divsf3+0x4>

00001586 <__divsf3_pse>:
    1586:	99 23       	and	r25, r25
    1588:	c9 f3       	breq	.-14     	; 0x157c <__divsf3+0x14>
    158a:	55 23       	and	r21, r21
    158c:	b1 f3       	breq	.-20     	; 0x157a <__divsf3+0x12>
    158e:	95 1b       	sub	r25, r21
    1590:	55 0b       	sbc	r21, r21
    1592:	bb 27       	eor	r27, r27
    1594:	aa 27       	eor	r26, r26
    1596:	62 17       	cp	r22, r18
    1598:	73 07       	cpc	r23, r19
    159a:	84 07       	cpc	r24, r20
    159c:	38 f0       	brcs	.+14     	; 0x15ac <__divsf3_pse+0x26>
    159e:	9f 5f       	subi	r25, 0xFF	; 255
    15a0:	5f 4f       	sbci	r21, 0xFF	; 255
    15a2:	22 0f       	add	r18, r18
    15a4:	33 1f       	adc	r19, r19
    15a6:	44 1f       	adc	r20, r20
    15a8:	aa 1f       	adc	r26, r26
    15aa:	a9 f3       	breq	.-22     	; 0x1596 <__divsf3_pse+0x10>
    15ac:	33 d0       	rcall	.+102    	; 0x1614 <__divsf3_pse+0x8e>
    15ae:	0e 2e       	mov	r0, r30
    15b0:	3a f0       	brmi	.+14     	; 0x15c0 <__divsf3_pse+0x3a>
    15b2:	e0 e8       	ldi	r30, 0x80	; 128
    15b4:	30 d0       	rcall	.+96     	; 0x1616 <__divsf3_pse+0x90>
    15b6:	91 50       	subi	r25, 0x01	; 1
    15b8:	50 40       	sbci	r21, 0x00	; 0
    15ba:	e6 95       	lsr	r30
    15bc:	00 1c       	adc	r0, r0
    15be:	ca f7       	brpl	.-14     	; 0x15b2 <__divsf3_pse+0x2c>
    15c0:	29 d0       	rcall	.+82     	; 0x1614 <__divsf3_pse+0x8e>
    15c2:	fe 2f       	mov	r31, r30
    15c4:	27 d0       	rcall	.+78     	; 0x1614 <__divsf3_pse+0x8e>
    15c6:	66 0f       	add	r22, r22
    15c8:	77 1f       	adc	r23, r23
    15ca:	88 1f       	adc	r24, r24
    15cc:	bb 1f       	adc	r27, r27
    15ce:	26 17       	cp	r18, r22
    15d0:	37 07       	cpc	r19, r23
    15d2:	48 07       	cpc	r20, r24
    15d4:	ab 07       	cpc	r26, r27
    15d6:	b0 e8       	ldi	r27, 0x80	; 128
    15d8:	09 f0       	breq	.+2      	; 0x15dc <__divsf3_pse+0x56>
    15da:	bb 0b       	sbc	r27, r27
    15dc:	80 2d       	mov	r24, r0
    15de:	bf 01       	movw	r22, r30
    15e0:	ff 27       	eor	r31, r31
    15e2:	93 58       	subi	r25, 0x83	; 131
    15e4:	5f 4f       	sbci	r21, 0xFF	; 255
    15e6:	2a f0       	brmi	.+10     	; 0x15f2 <__divsf3_pse+0x6c>
    15e8:	9e 3f       	cpi	r25, 0xFE	; 254
    15ea:	51 05       	cpc	r21, r1
    15ec:	68 f0       	brcs	.+26     	; 0x1608 <__divsf3_pse+0x82>
    15ee:	c3 c0       	rjmp	.+390    	; 0x1776 <__fp_inf>
    15f0:	32 c1       	rjmp	.+612    	; 0x1856 <__fp_szero>
    15f2:	5f 3f       	cpi	r21, 0xFF	; 255
    15f4:	ec f3       	brlt	.-6      	; 0x15f0 <__divsf3_pse+0x6a>
    15f6:	98 3e       	cpi	r25, 0xE8	; 232
    15f8:	dc f3       	brlt	.-10     	; 0x15f0 <__divsf3_pse+0x6a>
    15fa:	86 95       	lsr	r24
    15fc:	77 95       	ror	r23
    15fe:	67 95       	ror	r22
    1600:	b7 95       	ror	r27
    1602:	f7 95       	ror	r31
    1604:	9f 5f       	subi	r25, 0xFF	; 255
    1606:	c9 f7       	brne	.-14     	; 0x15fa <__divsf3_pse+0x74>
    1608:	88 0f       	add	r24, r24
    160a:	91 1d       	adc	r25, r1
    160c:	96 95       	lsr	r25
    160e:	87 95       	ror	r24
    1610:	97 f9       	bld	r25, 7
    1612:	08 95       	ret
    1614:	e1 e0       	ldi	r30, 0x01	; 1
    1616:	66 0f       	add	r22, r22
    1618:	77 1f       	adc	r23, r23
    161a:	88 1f       	adc	r24, r24
    161c:	bb 1f       	adc	r27, r27
    161e:	62 17       	cp	r22, r18
    1620:	73 07       	cpc	r23, r19
    1622:	84 07       	cpc	r24, r20
    1624:	ba 07       	cpc	r27, r26
    1626:	20 f0       	brcs	.+8      	; 0x1630 <__divsf3_pse+0xaa>
    1628:	62 1b       	sub	r22, r18
    162a:	73 0b       	sbc	r23, r19
    162c:	84 0b       	sbc	r24, r20
    162e:	ba 0b       	sbc	r27, r26
    1630:	ee 1f       	adc	r30, r30
    1632:	88 f7       	brcc	.-30     	; 0x1616 <__divsf3_pse+0x90>
    1634:	e0 95       	com	r30
    1636:	08 95       	ret
    1638:	19 f4       	brne	.+6      	; 0x1640 <__divsf3_pse+0xba>
    163a:	0e f0       	brts	.+2      	; 0x163e <__divsf3_pse+0xb8>
    163c:	9c c0       	rjmp	.+312    	; 0x1776 <__fp_inf>
    163e:	0a c1       	rjmp	.+532    	; 0x1854 <__fp_zero>
    1640:	a0 c0       	rjmp	.+320    	; 0x1782 <__fp_nan>

00001642 <exp>:
    1642:	ee d0       	rcall	.+476    	; 0x1820 <__fp_splitA>
    1644:	c8 f3       	brcs	.-14     	; 0x1638 <__divsf3_pse+0xb2>
    1646:	96 38       	cpi	r25, 0x86	; 134
    1648:	c0 f7       	brcc	.-16     	; 0x163a <__divsf3_pse+0xb4>
    164a:	07 f8       	bld	r0, 7
    164c:	0f 92       	push	r0
    164e:	e8 94       	clt
    1650:	2b e3       	ldi	r18, 0x3B	; 59
    1652:	3a ea       	ldi	r19, 0xAA	; 170
    1654:	48 eb       	ldi	r20, 0xB8	; 184
    1656:	5f e7       	ldi	r21, 0x7F	; 127
    1658:	82 d1       	rcall	.+772    	; 0x195e <__mulsf3_pse>
    165a:	0f 92       	push	r0
    165c:	0f 92       	push	r0
    165e:	0f 92       	push	r0
    1660:	4d b7       	in	r20, 0x3d	; 61
    1662:	5e b7       	in	r21, 0x3e	; 62
    1664:	0f 92       	push	r0
    1666:	3a d1       	rcall	.+628    	; 0x18dc <modf>
    1668:	ec e8       	ldi	r30, 0x8C	; 140
    166a:	f0 e0       	ldi	r31, 0x00	; 0
    166c:	8d d0       	rcall	.+282    	; 0x1788 <__fp_powser>
    166e:	4f 91       	pop	r20
    1670:	5f 91       	pop	r21
    1672:	ef 91       	pop	r30
    1674:	ff 91       	pop	r31
    1676:	e5 95       	asr	r30
    1678:	ee 1f       	adc	r30, r30
    167a:	ff 1f       	adc	r31, r31
    167c:	49 f0       	breq	.+18     	; 0x1690 <exp+0x4e>
    167e:	fe 57       	subi	r31, 0x7E	; 126
    1680:	e0 68       	ori	r30, 0x80	; 128
    1682:	44 27       	eor	r20, r20
    1684:	ee 0f       	add	r30, r30
    1686:	44 1f       	adc	r20, r20
    1688:	fa 95       	dec	r31
    168a:	e1 f7       	brne	.-8      	; 0x1684 <exp+0x42>
    168c:	41 95       	neg	r20
    168e:	55 0b       	sbc	r21, r21
    1690:	f1 d0       	rcall	.+482    	; 0x1874 <ldexp>
    1692:	0f 90       	pop	r0
    1694:	07 fe       	sbrs	r0, 7
    1696:	e5 c0       	rjmp	.+458    	; 0x1862 <inverse>
    1698:	08 95       	ret

0000169a <__fixsfsi>:
    169a:	04 d0       	rcall	.+8      	; 0x16a4 <__fixunssfsi>
    169c:	68 94       	set
    169e:	b1 11       	cpse	r27, r1
    16a0:	da c0       	rjmp	.+436    	; 0x1856 <__fp_szero>
    16a2:	08 95       	ret

000016a4 <__fixunssfsi>:
    16a4:	bd d0       	rcall	.+378    	; 0x1820 <__fp_splitA>
    16a6:	88 f0       	brcs	.+34     	; 0x16ca <__fixunssfsi+0x26>
    16a8:	9f 57       	subi	r25, 0x7F	; 127
    16aa:	90 f0       	brcs	.+36     	; 0x16d0 <__fixunssfsi+0x2c>
    16ac:	b9 2f       	mov	r27, r25
    16ae:	99 27       	eor	r25, r25
    16b0:	b7 51       	subi	r27, 0x17	; 23
    16b2:	a0 f0       	brcs	.+40     	; 0x16dc <__fixunssfsi+0x38>
    16b4:	d1 f0       	breq	.+52     	; 0x16ea <__fixunssfsi+0x46>
    16b6:	66 0f       	add	r22, r22
    16b8:	77 1f       	adc	r23, r23
    16ba:	88 1f       	adc	r24, r24
    16bc:	99 1f       	adc	r25, r25
    16be:	1a f0       	brmi	.+6      	; 0x16c6 <__fixunssfsi+0x22>
    16c0:	ba 95       	dec	r27
    16c2:	c9 f7       	brne	.-14     	; 0x16b6 <__fixunssfsi+0x12>
    16c4:	12 c0       	rjmp	.+36     	; 0x16ea <__fixunssfsi+0x46>
    16c6:	b1 30       	cpi	r27, 0x01	; 1
    16c8:	81 f0       	breq	.+32     	; 0x16ea <__fixunssfsi+0x46>
    16ca:	c4 d0       	rcall	.+392    	; 0x1854 <__fp_zero>
    16cc:	b1 e0       	ldi	r27, 0x01	; 1
    16ce:	08 95       	ret
    16d0:	c1 c0       	rjmp	.+386    	; 0x1854 <__fp_zero>
    16d2:	67 2f       	mov	r22, r23
    16d4:	78 2f       	mov	r23, r24
    16d6:	88 27       	eor	r24, r24
    16d8:	b8 5f       	subi	r27, 0xF8	; 248
    16da:	39 f0       	breq	.+14     	; 0x16ea <__fixunssfsi+0x46>
    16dc:	b9 3f       	cpi	r27, 0xF9	; 249
    16de:	cc f3       	brlt	.-14     	; 0x16d2 <__fixunssfsi+0x2e>
    16e0:	86 95       	lsr	r24
    16e2:	77 95       	ror	r23
    16e4:	67 95       	ror	r22
    16e6:	b3 95       	inc	r27
    16e8:	d9 f7       	brne	.-10     	; 0x16e0 <__fixunssfsi+0x3c>
    16ea:	3e f4       	brtc	.+14     	; 0x16fa <__fixunssfsi+0x56>
    16ec:	90 95       	com	r25
    16ee:	80 95       	com	r24
    16f0:	70 95       	com	r23
    16f2:	61 95       	neg	r22
    16f4:	7f 4f       	sbci	r23, 0xFF	; 255
    16f6:	8f 4f       	sbci	r24, 0xFF	; 255
    16f8:	9f 4f       	sbci	r25, 0xFF	; 255
    16fa:	08 95       	ret

000016fc <__floatunsisf>:
    16fc:	e8 94       	clt
    16fe:	09 c0       	rjmp	.+18     	; 0x1712 <__floatsisf+0x12>

00001700 <__floatsisf>:
    1700:	97 fb       	bst	r25, 7
    1702:	3e f4       	brtc	.+14     	; 0x1712 <__floatsisf+0x12>
    1704:	90 95       	com	r25
    1706:	80 95       	com	r24
    1708:	70 95       	com	r23
    170a:	61 95       	neg	r22
    170c:	7f 4f       	sbci	r23, 0xFF	; 255
    170e:	8f 4f       	sbci	r24, 0xFF	; 255
    1710:	9f 4f       	sbci	r25, 0xFF	; 255
    1712:	99 23       	and	r25, r25
    1714:	a9 f0       	breq	.+42     	; 0x1740 <__floatsisf+0x40>
    1716:	f9 2f       	mov	r31, r25
    1718:	96 e9       	ldi	r25, 0x96	; 150
    171a:	bb 27       	eor	r27, r27
    171c:	93 95       	inc	r25
    171e:	f6 95       	lsr	r31
    1720:	87 95       	ror	r24
    1722:	77 95       	ror	r23
    1724:	67 95       	ror	r22
    1726:	b7 95       	ror	r27
    1728:	f1 11       	cpse	r31, r1
    172a:	f8 cf       	rjmp	.-16     	; 0x171c <__floatsisf+0x1c>
    172c:	fa f4       	brpl	.+62     	; 0x176c <__floatsisf+0x6c>
    172e:	bb 0f       	add	r27, r27
    1730:	11 f4       	brne	.+4      	; 0x1736 <__floatsisf+0x36>
    1732:	60 ff       	sbrs	r22, 0
    1734:	1b c0       	rjmp	.+54     	; 0x176c <__floatsisf+0x6c>
    1736:	6f 5f       	subi	r22, 0xFF	; 255
    1738:	7f 4f       	sbci	r23, 0xFF	; 255
    173a:	8f 4f       	sbci	r24, 0xFF	; 255
    173c:	9f 4f       	sbci	r25, 0xFF	; 255
    173e:	16 c0       	rjmp	.+44     	; 0x176c <__floatsisf+0x6c>
    1740:	88 23       	and	r24, r24
    1742:	11 f0       	breq	.+4      	; 0x1748 <__floatsisf+0x48>
    1744:	96 e9       	ldi	r25, 0x96	; 150
    1746:	11 c0       	rjmp	.+34     	; 0x176a <__floatsisf+0x6a>
    1748:	77 23       	and	r23, r23
    174a:	21 f0       	breq	.+8      	; 0x1754 <__floatsisf+0x54>
    174c:	9e e8       	ldi	r25, 0x8E	; 142
    174e:	87 2f       	mov	r24, r23
    1750:	76 2f       	mov	r23, r22
    1752:	05 c0       	rjmp	.+10     	; 0x175e <__floatsisf+0x5e>
    1754:	66 23       	and	r22, r22
    1756:	71 f0       	breq	.+28     	; 0x1774 <__floatsisf+0x74>
    1758:	96 e8       	ldi	r25, 0x86	; 134
    175a:	86 2f       	mov	r24, r22
    175c:	70 e0       	ldi	r23, 0x00	; 0
    175e:	60 e0       	ldi	r22, 0x00	; 0
    1760:	2a f0       	brmi	.+10     	; 0x176c <__floatsisf+0x6c>
    1762:	9a 95       	dec	r25
    1764:	66 0f       	add	r22, r22
    1766:	77 1f       	adc	r23, r23
    1768:	88 1f       	adc	r24, r24
    176a:	da f7       	brpl	.-10     	; 0x1762 <__floatsisf+0x62>
    176c:	88 0f       	add	r24, r24
    176e:	96 95       	lsr	r25
    1770:	87 95       	ror	r24
    1772:	97 f9       	bld	r25, 7
    1774:	08 95       	ret

00001776 <__fp_inf>:
    1776:	97 f9       	bld	r25, 7
    1778:	9f 67       	ori	r25, 0x7F	; 127
    177a:	80 e8       	ldi	r24, 0x80	; 128
    177c:	70 e0       	ldi	r23, 0x00	; 0
    177e:	60 e0       	ldi	r22, 0x00	; 0
    1780:	08 95       	ret

00001782 <__fp_nan>:
    1782:	9f ef       	ldi	r25, 0xFF	; 255
    1784:	80 ec       	ldi	r24, 0xC0	; 192
    1786:	08 95       	ret

00001788 <__fp_powser>:
    1788:	df 93       	push	r29
    178a:	cf 93       	push	r28
    178c:	1f 93       	push	r17
    178e:	0f 93       	push	r16
    1790:	ff 92       	push	r15
    1792:	ef 92       	push	r14
    1794:	df 92       	push	r13
    1796:	7b 01       	movw	r14, r22
    1798:	8c 01       	movw	r16, r24
    179a:	68 94       	set
    179c:	05 c0       	rjmp	.+10     	; 0x17a8 <__fp_powser+0x20>
    179e:	da 2e       	mov	r13, r26
    17a0:	ef 01       	movw	r28, r30
    17a2:	db d0       	rcall	.+438    	; 0x195a <__mulsf3x>
    17a4:	fe 01       	movw	r30, r28
    17a6:	e8 94       	clt
    17a8:	a5 91       	lpm	r26, Z+
    17aa:	25 91       	lpm	r18, Z+
    17ac:	35 91       	lpm	r19, Z+
    17ae:	45 91       	lpm	r20, Z+
    17b0:	55 91       	lpm	r21, Z+
    17b2:	ae f3       	brts	.-22     	; 0x179e <__fp_powser+0x16>
    17b4:	ef 01       	movw	r28, r30
    17b6:	85 de       	rcall	.-758    	; 0x14c2 <__addsf3x>
    17b8:	fe 01       	movw	r30, r28
    17ba:	97 01       	movw	r18, r14
    17bc:	a8 01       	movw	r20, r16
    17be:	da 94       	dec	r13
    17c0:	79 f7       	brne	.-34     	; 0x17a0 <__fp_powser+0x18>
    17c2:	df 90       	pop	r13
    17c4:	ef 90       	pop	r14
    17c6:	ff 90       	pop	r15
    17c8:	0f 91       	pop	r16
    17ca:	1f 91       	pop	r17
    17cc:	cf 91       	pop	r28
    17ce:	df 91       	pop	r29
    17d0:	08 95       	ret

000017d2 <__fp_pscA>:
    17d2:	00 24       	eor	r0, r0
    17d4:	0a 94       	dec	r0
    17d6:	16 16       	cp	r1, r22
    17d8:	17 06       	cpc	r1, r23
    17da:	18 06       	cpc	r1, r24
    17dc:	09 06       	cpc	r0, r25
    17de:	08 95       	ret

000017e0 <__fp_pscB>:
    17e0:	00 24       	eor	r0, r0
    17e2:	0a 94       	dec	r0
    17e4:	12 16       	cp	r1, r18
    17e6:	13 06       	cpc	r1, r19
    17e8:	14 06       	cpc	r1, r20
    17ea:	05 06       	cpc	r0, r21
    17ec:	08 95       	ret

000017ee <__fp_round>:
    17ee:	09 2e       	mov	r0, r25
    17f0:	03 94       	inc	r0
    17f2:	00 0c       	add	r0, r0
    17f4:	11 f4       	brne	.+4      	; 0x17fa <__fp_round+0xc>
    17f6:	88 23       	and	r24, r24
    17f8:	52 f0       	brmi	.+20     	; 0x180e <__fp_round+0x20>
    17fa:	bb 0f       	add	r27, r27
    17fc:	40 f4       	brcc	.+16     	; 0x180e <__fp_round+0x20>
    17fe:	bf 2b       	or	r27, r31
    1800:	11 f4       	brne	.+4      	; 0x1806 <__fp_round+0x18>
    1802:	60 ff       	sbrs	r22, 0
    1804:	04 c0       	rjmp	.+8      	; 0x180e <__fp_round+0x20>
    1806:	6f 5f       	subi	r22, 0xFF	; 255
    1808:	7f 4f       	sbci	r23, 0xFF	; 255
    180a:	8f 4f       	sbci	r24, 0xFF	; 255
    180c:	9f 4f       	sbci	r25, 0xFF	; 255
    180e:	08 95       	ret

00001810 <__fp_split3>:
    1810:	57 fd       	sbrc	r21, 7
    1812:	90 58       	subi	r25, 0x80	; 128
    1814:	44 0f       	add	r20, r20
    1816:	55 1f       	adc	r21, r21
    1818:	59 f0       	breq	.+22     	; 0x1830 <__fp_splitA+0x10>
    181a:	5f 3f       	cpi	r21, 0xFF	; 255
    181c:	71 f0       	breq	.+28     	; 0x183a <__fp_splitA+0x1a>
    181e:	47 95       	ror	r20

00001820 <__fp_splitA>:
    1820:	88 0f       	add	r24, r24
    1822:	97 fb       	bst	r25, 7
    1824:	99 1f       	adc	r25, r25
    1826:	61 f0       	breq	.+24     	; 0x1840 <__fp_splitA+0x20>
    1828:	9f 3f       	cpi	r25, 0xFF	; 255
    182a:	79 f0       	breq	.+30     	; 0x184a <__fp_splitA+0x2a>
    182c:	87 95       	ror	r24
    182e:	08 95       	ret
    1830:	12 16       	cp	r1, r18
    1832:	13 06       	cpc	r1, r19
    1834:	14 06       	cpc	r1, r20
    1836:	55 1f       	adc	r21, r21
    1838:	f2 cf       	rjmp	.-28     	; 0x181e <__fp_split3+0xe>
    183a:	46 95       	lsr	r20
    183c:	f1 df       	rcall	.-30     	; 0x1820 <__fp_splitA>
    183e:	08 c0       	rjmp	.+16     	; 0x1850 <__fp_splitA+0x30>
    1840:	16 16       	cp	r1, r22
    1842:	17 06       	cpc	r1, r23
    1844:	18 06       	cpc	r1, r24
    1846:	99 1f       	adc	r25, r25
    1848:	f1 cf       	rjmp	.-30     	; 0x182c <__fp_splitA+0xc>
    184a:	86 95       	lsr	r24
    184c:	71 05       	cpc	r23, r1
    184e:	61 05       	cpc	r22, r1
    1850:	08 94       	sec
    1852:	08 95       	ret

00001854 <__fp_zero>:
    1854:	e8 94       	clt

00001856 <__fp_szero>:
    1856:	bb 27       	eor	r27, r27
    1858:	66 27       	eor	r22, r22
    185a:	77 27       	eor	r23, r23
    185c:	cb 01       	movw	r24, r22
    185e:	97 f9       	bld	r25, 7
    1860:	08 95       	ret

00001862 <inverse>:
    1862:	9b 01       	movw	r18, r22
    1864:	ac 01       	movw	r20, r24
    1866:	60 e0       	ldi	r22, 0x00	; 0
    1868:	70 e0       	ldi	r23, 0x00	; 0
    186a:	80 e8       	ldi	r24, 0x80	; 128
    186c:	9f e3       	ldi	r25, 0x3F	; 63
    186e:	7c ce       	rjmp	.-776    	; 0x1568 <__divsf3>
    1870:	82 cf       	rjmp	.-252    	; 0x1776 <__fp_inf>
    1872:	ca c0       	rjmp	.+404    	; 0x1a08 <__fp_mpack>

00001874 <ldexp>:
    1874:	d5 df       	rcall	.-86     	; 0x1820 <__fp_splitA>
    1876:	e8 f3       	brcs	.-6      	; 0x1872 <inverse+0x10>
    1878:	99 23       	and	r25, r25
    187a:	d9 f3       	breq	.-10     	; 0x1872 <inverse+0x10>
    187c:	94 0f       	add	r25, r20
    187e:	51 1d       	adc	r21, r1
    1880:	bb f3       	brvs	.-18     	; 0x1870 <inverse+0xe>
    1882:	91 50       	subi	r25, 0x01	; 1
    1884:	50 40       	sbci	r21, 0x00	; 0
    1886:	94 f0       	brlt	.+36     	; 0x18ac <ldexp+0x38>
    1888:	59 f0       	breq	.+22     	; 0x18a0 <ldexp+0x2c>
    188a:	88 23       	and	r24, r24
    188c:	32 f0       	brmi	.+12     	; 0x189a <ldexp+0x26>
    188e:	66 0f       	add	r22, r22
    1890:	77 1f       	adc	r23, r23
    1892:	88 1f       	adc	r24, r24
    1894:	91 50       	subi	r25, 0x01	; 1
    1896:	50 40       	sbci	r21, 0x00	; 0
    1898:	c1 f7       	brne	.-16     	; 0x188a <ldexp+0x16>
    189a:	9e 3f       	cpi	r25, 0xFE	; 254
    189c:	51 05       	cpc	r21, r1
    189e:	44 f7       	brge	.-48     	; 0x1870 <inverse+0xe>
    18a0:	88 0f       	add	r24, r24
    18a2:	91 1d       	adc	r25, r1
    18a4:	96 95       	lsr	r25
    18a6:	87 95       	ror	r24
    18a8:	97 f9       	bld	r25, 7
    18aa:	08 95       	ret
    18ac:	5f 3f       	cpi	r21, 0xFF	; 255
    18ae:	ac f0       	brlt	.+42     	; 0x18da <ldexp+0x66>
    18b0:	98 3e       	cpi	r25, 0xE8	; 232
    18b2:	9c f0       	brlt	.+38     	; 0x18da <ldexp+0x66>
    18b4:	bb 27       	eor	r27, r27
    18b6:	86 95       	lsr	r24
    18b8:	77 95       	ror	r23
    18ba:	67 95       	ror	r22
    18bc:	b7 95       	ror	r27
    18be:	08 f4       	brcc	.+2      	; 0x18c2 <ldexp+0x4e>
    18c0:	b1 60       	ori	r27, 0x01	; 1
    18c2:	93 95       	inc	r25
    18c4:	c1 f7       	brne	.-16     	; 0x18b6 <ldexp+0x42>
    18c6:	bb 0f       	add	r27, r27
    18c8:	58 f7       	brcc	.-42     	; 0x18a0 <ldexp+0x2c>
    18ca:	11 f4       	brne	.+4      	; 0x18d0 <ldexp+0x5c>
    18cc:	60 ff       	sbrs	r22, 0
    18ce:	e8 cf       	rjmp	.-48     	; 0x18a0 <ldexp+0x2c>
    18d0:	6f 5f       	subi	r22, 0xFF	; 255
    18d2:	7f 4f       	sbci	r23, 0xFF	; 255
    18d4:	8f 4f       	sbci	r24, 0xFF	; 255
    18d6:	9f 4f       	sbci	r25, 0xFF	; 255
    18d8:	e3 cf       	rjmp	.-58     	; 0x18a0 <ldexp+0x2c>
    18da:	bd cf       	rjmp	.-134    	; 0x1856 <__fp_szero>

000018dc <modf>:
    18dc:	fa 01       	movw	r30, r20
    18de:	dc 01       	movw	r26, r24
    18e0:	aa 0f       	add	r26, r26
    18e2:	bb 1f       	adc	r27, r27
    18e4:	9b 01       	movw	r18, r22
    18e6:	ac 01       	movw	r20, r24
    18e8:	bf 57       	subi	r27, 0x7F	; 127
    18ea:	28 f4       	brcc	.+10     	; 0x18f6 <modf+0x1a>
    18ec:	22 27       	eor	r18, r18
    18ee:	33 27       	eor	r19, r19
    18f0:	44 27       	eor	r20, r20
    18f2:	50 78       	andi	r21, 0x80	; 128
    18f4:	1f c0       	rjmp	.+62     	; 0x1934 <modf+0x58>
    18f6:	b7 51       	subi	r27, 0x17	; 23
    18f8:	88 f4       	brcc	.+34     	; 0x191c <modf+0x40>
    18fa:	ab 2f       	mov	r26, r27
    18fc:	00 24       	eor	r0, r0
    18fe:	46 95       	lsr	r20
    1900:	37 95       	ror	r19
    1902:	27 95       	ror	r18
    1904:	01 1c       	adc	r0, r1
    1906:	a3 95       	inc	r26
    1908:	d2 f3       	brmi	.-12     	; 0x18fe <modf+0x22>
    190a:	00 20       	and	r0, r0
    190c:	69 f0       	breq	.+26     	; 0x1928 <modf+0x4c>
    190e:	22 0f       	add	r18, r18
    1910:	33 1f       	adc	r19, r19
    1912:	44 1f       	adc	r20, r20
    1914:	b3 95       	inc	r27
    1916:	da f3       	brmi	.-10     	; 0x190e <modf+0x32>
    1918:	0d d0       	rcall	.+26     	; 0x1934 <modf+0x58>
    191a:	c1 cd       	rjmp	.-1150   	; 0x149e <__subsf3>
    191c:	61 30       	cpi	r22, 0x01	; 1
    191e:	71 05       	cpc	r23, r1
    1920:	a0 e8       	ldi	r26, 0x80	; 128
    1922:	8a 07       	cpc	r24, r26
    1924:	b9 46       	sbci	r27, 0x69	; 105
    1926:	30 f4       	brcc	.+12     	; 0x1934 <modf+0x58>
    1928:	9b 01       	movw	r18, r22
    192a:	ac 01       	movw	r20, r24
    192c:	66 27       	eor	r22, r22
    192e:	77 27       	eor	r23, r23
    1930:	88 27       	eor	r24, r24
    1932:	90 78       	andi	r25, 0x80	; 128
    1934:	30 96       	adiw	r30, 0x00	; 0
    1936:	21 f0       	breq	.+8      	; 0x1940 <modf+0x64>
    1938:	20 83       	st	Z, r18
    193a:	31 83       	std	Z+1, r19	; 0x01
    193c:	42 83       	std	Z+2, r20	; 0x02
    193e:	53 83       	std	Z+3, r21	; 0x03
    1940:	08 95       	ret

00001942 <__mulsf3>:
    1942:	0b d0       	rcall	.+22     	; 0x195a <__mulsf3x>
    1944:	54 cf       	rjmp	.-344    	; 0x17ee <__fp_round>
    1946:	45 df       	rcall	.-374    	; 0x17d2 <__fp_pscA>
    1948:	28 f0       	brcs	.+10     	; 0x1954 <__mulsf3+0x12>
    194a:	4a df       	rcall	.-364    	; 0x17e0 <__fp_pscB>
    194c:	18 f0       	brcs	.+6      	; 0x1954 <__mulsf3+0x12>
    194e:	95 23       	and	r25, r21
    1950:	09 f0       	breq	.+2      	; 0x1954 <__mulsf3+0x12>
    1952:	11 cf       	rjmp	.-478    	; 0x1776 <__fp_inf>
    1954:	16 cf       	rjmp	.-468    	; 0x1782 <__fp_nan>
    1956:	11 24       	eor	r1, r1
    1958:	7e cf       	rjmp	.-260    	; 0x1856 <__fp_szero>

0000195a <__mulsf3x>:
    195a:	5a df       	rcall	.-332    	; 0x1810 <__fp_split3>
    195c:	a0 f3       	brcs	.-24     	; 0x1946 <__mulsf3+0x4>

0000195e <__mulsf3_pse>:
    195e:	95 9f       	mul	r25, r21
    1960:	d1 f3       	breq	.-12     	; 0x1956 <__mulsf3+0x14>
    1962:	95 0f       	add	r25, r21
    1964:	50 e0       	ldi	r21, 0x00	; 0
    1966:	55 1f       	adc	r21, r21
    1968:	62 9f       	mul	r22, r18
    196a:	f0 01       	movw	r30, r0
    196c:	72 9f       	mul	r23, r18
    196e:	bb 27       	eor	r27, r27
    1970:	f0 0d       	add	r31, r0
    1972:	b1 1d       	adc	r27, r1
    1974:	63 9f       	mul	r22, r19
    1976:	aa 27       	eor	r26, r26
    1978:	f0 0d       	add	r31, r0
    197a:	b1 1d       	adc	r27, r1
    197c:	aa 1f       	adc	r26, r26
    197e:	64 9f       	mul	r22, r20
    1980:	66 27       	eor	r22, r22
    1982:	b0 0d       	add	r27, r0
    1984:	a1 1d       	adc	r26, r1
    1986:	66 1f       	adc	r22, r22
    1988:	82 9f       	mul	r24, r18
    198a:	22 27       	eor	r18, r18
    198c:	b0 0d       	add	r27, r0
    198e:	a1 1d       	adc	r26, r1
    1990:	62 1f       	adc	r22, r18
    1992:	73 9f       	mul	r23, r19
    1994:	b0 0d       	add	r27, r0
    1996:	a1 1d       	adc	r26, r1
    1998:	62 1f       	adc	r22, r18
    199a:	83 9f       	mul	r24, r19
    199c:	a0 0d       	add	r26, r0
    199e:	61 1d       	adc	r22, r1
    19a0:	22 1f       	adc	r18, r18
    19a2:	74 9f       	mul	r23, r20
    19a4:	33 27       	eor	r19, r19
    19a6:	a0 0d       	add	r26, r0
    19a8:	61 1d       	adc	r22, r1
    19aa:	23 1f       	adc	r18, r19
    19ac:	84 9f       	mul	r24, r20
    19ae:	60 0d       	add	r22, r0
    19b0:	21 1d       	adc	r18, r1
    19b2:	82 2f       	mov	r24, r18
    19b4:	76 2f       	mov	r23, r22
    19b6:	6a 2f       	mov	r22, r26
    19b8:	11 24       	eor	r1, r1
    19ba:	9f 57       	subi	r25, 0x7F	; 127
    19bc:	50 40       	sbci	r21, 0x00	; 0
    19be:	8a f0       	brmi	.+34     	; 0x19e2 <__mulsf3_pse+0x84>
    19c0:	e1 f0       	breq	.+56     	; 0x19fa <__mulsf3_pse+0x9c>
    19c2:	88 23       	and	r24, r24
    19c4:	4a f0       	brmi	.+18     	; 0x19d8 <__mulsf3_pse+0x7a>
    19c6:	ee 0f       	add	r30, r30
    19c8:	ff 1f       	adc	r31, r31
    19ca:	bb 1f       	adc	r27, r27
    19cc:	66 1f       	adc	r22, r22
    19ce:	77 1f       	adc	r23, r23
    19d0:	88 1f       	adc	r24, r24
    19d2:	91 50       	subi	r25, 0x01	; 1
    19d4:	50 40       	sbci	r21, 0x00	; 0
    19d6:	a9 f7       	brne	.-22     	; 0x19c2 <__mulsf3_pse+0x64>
    19d8:	9e 3f       	cpi	r25, 0xFE	; 254
    19da:	51 05       	cpc	r21, r1
    19dc:	70 f0       	brcs	.+28     	; 0x19fa <__mulsf3_pse+0x9c>
    19de:	cb ce       	rjmp	.-618    	; 0x1776 <__fp_inf>
    19e0:	3a cf       	rjmp	.-396    	; 0x1856 <__fp_szero>
    19e2:	5f 3f       	cpi	r21, 0xFF	; 255
    19e4:	ec f3       	brlt	.-6      	; 0x19e0 <__mulsf3_pse+0x82>
    19e6:	98 3e       	cpi	r25, 0xE8	; 232
    19e8:	dc f3       	brlt	.-10     	; 0x19e0 <__mulsf3_pse+0x82>
    19ea:	86 95       	lsr	r24
    19ec:	77 95       	ror	r23
    19ee:	67 95       	ror	r22
    19f0:	b7 95       	ror	r27
    19f2:	f7 95       	ror	r31
    19f4:	e7 95       	ror	r30
    19f6:	9f 5f       	subi	r25, 0xFF	; 255
    19f8:	c1 f7       	brne	.-16     	; 0x19ea <__mulsf3_pse+0x8c>
    19fa:	fe 2b       	or	r31, r30
    19fc:	88 0f       	add	r24, r24
    19fe:	91 1d       	adc	r25, r1
    1a00:	96 95       	lsr	r25
    1a02:	87 95       	ror	r24
    1a04:	97 f9       	bld	r25, 7
    1a06:	08 95       	ret

00001a08 <__fp_mpack>:
    1a08:	9f 3f       	cpi	r25, 0xFF	; 255
    1a0a:	31 f0       	breq	.+12     	; 0x1a18 <__fp_mpack_finite+0xc>

00001a0c <__fp_mpack_finite>:
    1a0c:	91 50       	subi	r25, 0x01	; 1
    1a0e:	20 f4       	brcc	.+8      	; 0x1a18 <__fp_mpack_finite+0xc>
    1a10:	87 95       	ror	r24
    1a12:	77 95       	ror	r23
    1a14:	67 95       	ror	r22
    1a16:	b7 95       	ror	r27
    1a18:	88 0f       	add	r24, r24
    1a1a:	91 1d       	adc	r25, r1
    1a1c:	96 95       	lsr	r25
    1a1e:	87 95       	ror	r24
    1a20:	97 f9       	bld	r25, 7
    1a22:	08 95       	ret

00001a24 <__udivmodsi4>:
    1a24:	a1 e2       	ldi	r26, 0x21	; 33
    1a26:	1a 2e       	mov	r1, r26
    1a28:	aa 1b       	sub	r26, r26
    1a2a:	bb 1b       	sub	r27, r27
    1a2c:	fd 01       	movw	r30, r26
    1a2e:	0d c0       	rjmp	.+26     	; 0x1a4a <__udivmodsi4_ep>

00001a30 <__udivmodsi4_loop>:
    1a30:	aa 1f       	adc	r26, r26
    1a32:	bb 1f       	adc	r27, r27
    1a34:	ee 1f       	adc	r30, r30
    1a36:	ff 1f       	adc	r31, r31
    1a38:	a2 17       	cp	r26, r18
    1a3a:	b3 07       	cpc	r27, r19
    1a3c:	e4 07       	cpc	r30, r20
    1a3e:	f5 07       	cpc	r31, r21
    1a40:	20 f0       	brcs	.+8      	; 0x1a4a <__udivmodsi4_ep>
    1a42:	a2 1b       	sub	r26, r18
    1a44:	b3 0b       	sbc	r27, r19
    1a46:	e4 0b       	sbc	r30, r20
    1a48:	f5 0b       	sbc	r31, r21

00001a4a <__udivmodsi4_ep>:
    1a4a:	66 1f       	adc	r22, r22
    1a4c:	77 1f       	adc	r23, r23
    1a4e:	88 1f       	adc	r24, r24
    1a50:	99 1f       	adc	r25, r25
    1a52:	1a 94       	dec	r1
    1a54:	69 f7       	brne	.-38     	; 0x1a30 <__udivmodsi4_loop>
    1a56:	60 95       	com	r22
    1a58:	70 95       	com	r23
    1a5a:	80 95       	com	r24
    1a5c:	90 95       	com	r25
    1a5e:	9b 01       	movw	r18, r22
    1a60:	ac 01       	movw	r20, r24
    1a62:	bd 01       	movw	r22, r26
    1a64:	cf 01       	movw	r24, r30
    1a66:	08 95       	ret

00001a68 <dtostrf>:
    1a68:	ef 92       	push	r14
    1a6a:	ff 92       	push	r15
    1a6c:	0f 93       	push	r16
    1a6e:	1f 93       	push	r17
    1a70:	f2 2f       	mov	r31, r18
    1a72:	f0 2e       	mov	r15, r16
    1a74:	47 fd       	sbrc	r20, 7
    1a76:	02 c0       	rjmp	.+4      	; 0x1a7c <dtostrf+0x14>
    1a78:	e4 e0       	ldi	r30, 0x04	; 4
    1a7a:	01 c0       	rjmp	.+2      	; 0x1a7e <dtostrf+0x16>
    1a7c:	e4 e1       	ldi	r30, 0x14	; 20
    1a7e:	24 2f       	mov	r18, r20
    1a80:	33 27       	eor	r19, r19
    1a82:	27 fd       	sbrc	r18, 7
    1a84:	30 95       	com	r19
    1a86:	37 ff       	sbrs	r19, 7
    1a88:	03 c0       	rjmp	.+6      	; 0x1a90 <dtostrf+0x28>
    1a8a:	30 95       	com	r19
    1a8c:	21 95       	neg	r18
    1a8e:	3f 4f       	sbci	r19, 0xFF	; 255
    1a90:	4f 2d       	mov	r20, r15
    1a92:	51 2f       	mov	r21, r17
    1a94:	0f 2f       	mov	r16, r31
    1a96:	ee 2e       	mov	r14, r30
    1a98:	0e 94 9c 0d 	call	0x1b38	; 0x1b38 <dtoa_prf>
    1a9c:	8f 2d       	mov	r24, r15
    1a9e:	91 2f       	mov	r25, r17
    1aa0:	1f 91       	pop	r17
    1aa2:	0f 91       	pop	r16
    1aa4:	ff 90       	pop	r15
    1aa6:	ef 90       	pop	r14
    1aa8:	08 95       	ret

00001aaa <atoi>:
    1aaa:	fc 01       	movw	r30, r24
    1aac:	88 27       	eor	r24, r24
    1aae:	99 27       	eor	r25, r25
    1ab0:	e8 94       	clt
    1ab2:	21 91       	ld	r18, Z+
    1ab4:	20 32       	cpi	r18, 0x20	; 32
    1ab6:	e9 f3       	breq	.-6      	; 0x1ab2 <atoi+0x8>
    1ab8:	29 30       	cpi	r18, 0x09	; 9
    1aba:	10 f0       	brcs	.+4      	; 0x1ac0 <atoi+0x16>
    1abc:	2e 30       	cpi	r18, 0x0E	; 14
    1abe:	c8 f3       	brcs	.-14     	; 0x1ab2 <atoi+0x8>
    1ac0:	2b 32       	cpi	r18, 0x2B	; 43
    1ac2:	41 f0       	breq	.+16     	; 0x1ad4 <atoi+0x2a>
    1ac4:	2d 32       	cpi	r18, 0x2D	; 45
    1ac6:	39 f4       	brne	.+14     	; 0x1ad6 <atoi+0x2c>
    1ac8:	68 94       	set
    1aca:	04 c0       	rjmp	.+8      	; 0x1ad4 <atoi+0x2a>
    1acc:	0e 94 94 0d 	call	0x1b28	; 0x1b28 <__mulhi_const_10>
    1ad0:	82 0f       	add	r24, r18
    1ad2:	91 1d       	adc	r25, r1
    1ad4:	21 91       	ld	r18, Z+
    1ad6:	20 53       	subi	r18, 0x30	; 48
    1ad8:	2a 30       	cpi	r18, 0x0A	; 10
    1ada:	c0 f3       	brcs	.-16     	; 0x1acc <atoi+0x22>
    1adc:	1e f4       	brtc	.+6      	; 0x1ae4 <atoi+0x3a>
    1ade:	90 95       	com	r25
    1ae0:	81 95       	neg	r24
    1ae2:	9f 4f       	sbci	r25, 0xFF	; 255
    1ae4:	08 95       	ret

00001ae6 <itoa>:
    1ae6:	fb 01       	movw	r30, r22
    1ae8:	9f 01       	movw	r18, r30
    1aea:	e8 94       	clt
    1aec:	42 30       	cpi	r20, 0x02	; 2
    1aee:	c4 f0       	brlt	.+48     	; 0x1b20 <itoa+0x3a>
    1af0:	45 32       	cpi	r20, 0x25	; 37
    1af2:	b4 f4       	brge	.+44     	; 0x1b20 <itoa+0x3a>
    1af4:	4a 30       	cpi	r20, 0x0A	; 10
    1af6:	29 f4       	brne	.+10     	; 0x1b02 <itoa+0x1c>
    1af8:	97 fb       	bst	r25, 7
    1afa:	1e f4       	brtc	.+6      	; 0x1b02 <itoa+0x1c>
    1afc:	90 95       	com	r25
    1afe:	81 95       	neg	r24
    1b00:	9f 4f       	sbci	r25, 0xFF	; 255
    1b02:	64 2f       	mov	r22, r20
    1b04:	77 27       	eor	r23, r23
    1b06:	0e 94 06 10 	call	0x200c	; 0x200c <__udivmodhi4>
    1b0a:	80 5d       	subi	r24, 0xD0	; 208
    1b0c:	8a 33       	cpi	r24, 0x3A	; 58
    1b0e:	0c f0       	brlt	.+2      	; 0x1b12 <itoa+0x2c>
    1b10:	89 5d       	subi	r24, 0xD9	; 217
    1b12:	81 93       	st	Z+, r24
    1b14:	cb 01       	movw	r24, r22
    1b16:	00 97       	sbiw	r24, 0x00	; 0
    1b18:	a1 f7       	brne	.-24     	; 0x1b02 <itoa+0x1c>
    1b1a:	16 f4       	brtc	.+4      	; 0x1b20 <itoa+0x3a>
    1b1c:	5d e2       	ldi	r21, 0x2D	; 45
    1b1e:	51 93       	st	Z+, r21
    1b20:	10 82       	st	Z, r1
    1b22:	c9 01       	movw	r24, r18
    1b24:	0c 94 f6 0f 	jmp	0x1fec	; 0x1fec <strrev>

00001b28 <__mulhi_const_10>:
    1b28:	7a e0       	ldi	r23, 0x0A	; 10
    1b2a:	97 9f       	mul	r25, r23
    1b2c:	90 2d       	mov	r25, r0
    1b2e:	87 9f       	mul	r24, r23
    1b30:	80 2d       	mov	r24, r0
    1b32:	91 0d       	add	r25, r1
    1b34:	11 24       	eor	r1, r1
    1b36:	08 95       	ret

00001b38 <dtoa_prf>:
    1b38:	6f 92       	push	r6
    1b3a:	7f 92       	push	r7
    1b3c:	8f 92       	push	r8
    1b3e:	9f 92       	push	r9
    1b40:	af 92       	push	r10
    1b42:	bf 92       	push	r11
    1b44:	cf 92       	push	r12
    1b46:	df 92       	push	r13
    1b48:	ef 92       	push	r14
    1b4a:	ff 92       	push	r15
    1b4c:	0f 93       	push	r16
    1b4e:	1f 93       	push	r17
    1b50:	df 93       	push	r29
    1b52:	cf 93       	push	r28
    1b54:	cd b7       	in	r28, 0x3d	; 61
    1b56:	de b7       	in	r29, 0x3e	; 62
    1b58:	29 97       	sbiw	r28, 0x09	; 9
    1b5a:	0f b6       	in	r0, 0x3f	; 63
    1b5c:	f8 94       	cli
    1b5e:	de bf       	out	0x3e, r29	; 62
    1b60:	0f be       	out	0x3f, r0	; 63
    1b62:	cd bf       	out	0x3d, r28	; 61
    1b64:	6a 01       	movw	r12, r20
    1b66:	12 2f       	mov	r17, r18
    1b68:	a0 2e       	mov	r10, r16
    1b6a:	be 2c       	mov	r11, r14
    1b6c:	2b e3       	ldi	r18, 0x3B	; 59
    1b6e:	20 17       	cp	r18, r16
    1b70:	18 f4       	brcc	.+6      	; 0x1b78 <dtoa_prf+0x40>
    1b72:	2c e3       	ldi	r18, 0x3C	; 60
    1b74:	92 2e       	mov	r9, r18
    1b76:	02 c0       	rjmp	.+4      	; 0x1b7c <dtoa_prf+0x44>
    1b78:	90 2e       	mov	r9, r16
    1b7a:	93 94       	inc	r9
    1b7c:	ae 01       	movw	r20, r28
    1b7e:	4f 5f       	subi	r20, 0xFF	; 255
    1b80:	5f 4f       	sbci	r21, 0xFF	; 255
    1b82:	27 e0       	ldi	r18, 0x07	; 7
    1b84:	09 2d       	mov	r16, r9
    1b86:	0e 94 1e 0f 	call	0x1e3c	; 0x1e3c <__ftoa_engine>
    1b8a:	bc 01       	movw	r22, r24
    1b8c:	89 81       	ldd	r24, Y+1	; 0x01
    1b8e:	e8 2e       	mov	r14, r24
    1b90:	ff 24       	eor	r15, r15
    1b92:	c7 01       	movw	r24, r14
    1b94:	89 70       	andi	r24, 0x09	; 9
    1b96:	90 70       	andi	r25, 0x00	; 0
    1b98:	01 97       	sbiw	r24, 0x01	; 1
    1b9a:	11 f4       	brne	.+4      	; 0x1ba0 <dtoa_prf+0x68>
    1b9c:	ad e2       	ldi	r26, 0x2D	; 45
    1b9e:	09 c0       	rjmp	.+18     	; 0x1bb2 <dtoa_prf+0x7a>
    1ba0:	b1 fe       	sbrs	r11, 1
    1ba2:	02 c0       	rjmp	.+4      	; 0x1ba8 <dtoa_prf+0x70>
    1ba4:	ab e2       	ldi	r26, 0x2B	; 43
    1ba6:	05 c0       	rjmp	.+10     	; 0x1bb2 <dtoa_prf+0x7a>
    1ba8:	b0 fc       	sbrc	r11, 0
    1baa:	02 c0       	rjmp	.+4      	; 0x1bb0 <dtoa_prf+0x78>
    1bac:	a0 e0       	ldi	r26, 0x00	; 0
    1bae:	01 c0       	rjmp	.+2      	; 0x1bb2 <dtoa_prf+0x7a>
    1bb0:	a0 e2       	ldi	r26, 0x20	; 32
    1bb2:	e3 fe       	sbrs	r14, 3
    1bb4:	3b c0       	rjmp	.+118    	; 0x1c2c <dtoa_prf+0xf4>
    1bb6:	aa 23       	and	r26, r26
    1bb8:	11 f4       	brne	.+4      	; 0x1bbe <dtoa_prf+0x86>
    1bba:	23 e0       	ldi	r18, 0x03	; 3
    1bbc:	01 c0       	rjmp	.+2      	; 0x1bc0 <dtoa_prf+0x88>
    1bbe:	24 e0       	ldi	r18, 0x04	; 4
    1bc0:	21 17       	cp	r18, r17
    1bc2:	10 f0       	brcs	.+4      	; 0x1bc8 <dtoa_prf+0x90>
    1bc4:	20 e0       	ldi	r18, 0x00	; 0
    1bc6:	02 c0       	rjmp	.+4      	; 0x1bcc <dtoa_prf+0x94>
    1bc8:	12 1b       	sub	r17, r18
    1bca:	21 2f       	mov	r18, r17
    1bcc:	eb 2c       	mov	r14, r11
    1bce:	b4 fe       	sbrs	r11, 4
    1bd0:	02 c0       	rjmp	.+4      	; 0x1bd6 <dtoa_prf+0x9e>
    1bd2:	32 2f       	mov	r19, r18
    1bd4:	0a c0       	rjmp	.+20     	; 0x1bea <dtoa_prf+0xb2>
    1bd6:	f6 01       	movw	r30, r12
    1bd8:	32 2f       	mov	r19, r18
    1bda:	80 e2       	ldi	r24, 0x20	; 32
    1bdc:	02 c0       	rjmp	.+4      	; 0x1be2 <dtoa_prf+0xaa>
    1bde:	81 93       	st	Z+, r24
    1be0:	31 50       	subi	r19, 0x01	; 1
    1be2:	33 23       	and	r19, r19
    1be4:	e1 f7       	brne	.-8      	; 0x1bde <dtoa_prf+0xa6>
    1be6:	c2 0e       	add	r12, r18
    1be8:	d1 1c       	adc	r13, r1
    1bea:	aa 23       	and	r26, r26
    1bec:	19 f0       	breq	.+6      	; 0x1bf4 <dtoa_prf+0xbc>
    1bee:	f6 01       	movw	r30, r12
    1bf0:	a1 93       	st	Z+, r26
    1bf2:	6f 01       	movw	r12, r30
    1bf4:	f6 01       	movw	r30, r12
    1bf6:	31 96       	adiw	r30, 0x01	; 1
    1bf8:	e2 fe       	sbrs	r14, 2
    1bfa:	05 c0       	rjmp	.+10     	; 0x1c06 <dtoa_prf+0xce>
    1bfc:	9e e4       	ldi	r25, 0x4E	; 78
    1bfe:	d6 01       	movw	r26, r12
    1c00:	9c 93       	st	X, r25
    1c02:	81 e4       	ldi	r24, 0x41	; 65
    1c04:	04 c0       	rjmp	.+8      	; 0x1c0e <dtoa_prf+0xd6>
    1c06:	9e e6       	ldi	r25, 0x6E	; 110
    1c08:	d6 01       	movw	r26, r12
    1c0a:	9c 93       	st	X, r25
    1c0c:	81 e6       	ldi	r24, 0x61	; 97
    1c0e:	11 96       	adiw	r26, 0x01	; 1
    1c10:	8c 93       	st	X, r24
    1c12:	91 83       	std	Z+1, r25	; 0x01
    1c14:	32 96       	adiw	r30, 0x02	; 2
    1c16:	df 01       	movw	r26, r30
    1c18:	83 2f       	mov	r24, r19
    1c1a:	90 e2       	ldi	r25, 0x20	; 32
    1c1c:	02 c0       	rjmp	.+4      	; 0x1c22 <dtoa_prf+0xea>
    1c1e:	9d 93       	st	X+, r25
    1c20:	81 50       	subi	r24, 0x01	; 1
    1c22:	88 23       	and	r24, r24
    1c24:	e1 f7       	brne	.-8      	; 0x1c1e <dtoa_prf+0xe6>
    1c26:	e3 0f       	add	r30, r19
    1c28:	f1 1d       	adc	r31, r1
    1c2a:	40 c0       	rjmp	.+128    	; 0x1cac <dtoa_prf+0x174>
    1c2c:	e2 fe       	sbrs	r14, 2
    1c2e:	42 c0       	rjmp	.+132    	; 0x1cb4 <dtoa_prf+0x17c>
    1c30:	aa 23       	and	r26, r26
    1c32:	11 f4       	brne	.+4      	; 0x1c38 <dtoa_prf+0x100>
    1c34:	23 e0       	ldi	r18, 0x03	; 3
    1c36:	01 c0       	rjmp	.+2      	; 0x1c3a <dtoa_prf+0x102>
    1c38:	24 e0       	ldi	r18, 0x04	; 4
    1c3a:	21 17       	cp	r18, r17
    1c3c:	10 f0       	brcs	.+4      	; 0x1c42 <dtoa_prf+0x10a>
    1c3e:	20 e0       	ldi	r18, 0x00	; 0
    1c40:	02 c0       	rjmp	.+4      	; 0x1c46 <dtoa_prf+0x10e>
    1c42:	12 1b       	sub	r17, r18
    1c44:	21 2f       	mov	r18, r17
    1c46:	eb 2c       	mov	r14, r11
    1c48:	b4 fe       	sbrs	r11, 4
    1c4a:	02 c0       	rjmp	.+4      	; 0x1c50 <dtoa_prf+0x118>
    1c4c:	92 2f       	mov	r25, r18
    1c4e:	0a c0       	rjmp	.+20     	; 0x1c64 <dtoa_prf+0x12c>
    1c50:	f6 01       	movw	r30, r12
    1c52:	92 2f       	mov	r25, r18
    1c54:	80 e2       	ldi	r24, 0x20	; 32
    1c56:	02 c0       	rjmp	.+4      	; 0x1c5c <dtoa_prf+0x124>
    1c58:	81 93       	st	Z+, r24
    1c5a:	91 50       	subi	r25, 0x01	; 1
    1c5c:	99 23       	and	r25, r25
    1c5e:	e1 f7       	brne	.-8      	; 0x1c58 <dtoa_prf+0x120>
    1c60:	c2 0e       	add	r12, r18
    1c62:	d1 1c       	adc	r13, r1
    1c64:	aa 23       	and	r26, r26
    1c66:	19 f0       	breq	.+6      	; 0x1c6e <dtoa_prf+0x136>
    1c68:	f6 01       	movw	r30, r12
    1c6a:	a1 93       	st	Z+, r26
    1c6c:	6f 01       	movw	r12, r30
    1c6e:	f6 01       	movw	r30, r12
    1c70:	31 96       	adiw	r30, 0x01	; 1
    1c72:	e2 fe       	sbrs	r14, 2
    1c74:	08 c0       	rjmp	.+16     	; 0x1c86 <dtoa_prf+0x14e>
    1c76:	89 e4       	ldi	r24, 0x49	; 73
    1c78:	d6 01       	movw	r26, r12
    1c7a:	8c 93       	st	X, r24
    1c7c:	8e e4       	ldi	r24, 0x4E	; 78
    1c7e:	11 96       	adiw	r26, 0x01	; 1
    1c80:	8c 93       	st	X, r24
    1c82:	86 e4       	ldi	r24, 0x46	; 70
    1c84:	07 c0       	rjmp	.+14     	; 0x1c94 <dtoa_prf+0x15c>
    1c86:	89 e6       	ldi	r24, 0x69	; 105
    1c88:	d6 01       	movw	r26, r12
    1c8a:	8c 93       	st	X, r24
    1c8c:	8e e6       	ldi	r24, 0x6E	; 110
    1c8e:	11 96       	adiw	r26, 0x01	; 1
    1c90:	8c 93       	st	X, r24
    1c92:	86 e6       	ldi	r24, 0x66	; 102
    1c94:	81 83       	std	Z+1, r24	; 0x01
    1c96:	32 96       	adiw	r30, 0x02	; 2
    1c98:	df 01       	movw	r26, r30
    1c9a:	89 2f       	mov	r24, r25
    1c9c:	20 e2       	ldi	r18, 0x20	; 32
    1c9e:	02 c0       	rjmp	.+4      	; 0x1ca4 <dtoa_prf+0x16c>
    1ca0:	2d 93       	st	X+, r18
    1ca2:	81 50       	subi	r24, 0x01	; 1
    1ca4:	88 23       	and	r24, r24
    1ca6:	e1 f7       	brne	.-8      	; 0x1ca0 <dtoa_prf+0x168>
    1ca8:	e9 0f       	add	r30, r25
    1caa:	f1 1d       	adc	r31, r1
    1cac:	10 82       	st	Z, r1
    1cae:	2e ef       	ldi	r18, 0xFE	; 254
    1cb0:	3f ef       	ldi	r19, 0xFF	; 255
    1cb2:	ae c0       	rjmp	.+348    	; 0x1e10 <dtoa_prf+0x2d8>
    1cb4:	16 16       	cp	r1, r22
    1cb6:	17 06       	cpc	r1, r23
    1cb8:	1c f0       	brlt	.+6      	; 0x1cc0 <dtoa_prf+0x188>
    1cba:	41 e0       	ldi	r20, 0x01	; 1
    1cbc:	50 e0       	ldi	r21, 0x00	; 0
    1cbe:	03 c0       	rjmp	.+6      	; 0x1cc6 <dtoa_prf+0x18e>
    1cc0:	ab 01       	movw	r20, r22
    1cc2:	4f 5f       	subi	r20, 0xFF	; 255
    1cc4:	5f 4f       	sbci	r21, 0xFF	; 255
    1cc6:	aa 20       	and	r10, r10
    1cc8:	19 f4       	brne	.+6      	; 0x1cd0 <dtoa_prf+0x198>
    1cca:	80 e0       	ldi	r24, 0x00	; 0
    1ccc:	90 e0       	ldi	r25, 0x00	; 0
    1cce:	03 c0       	rjmp	.+6      	; 0x1cd6 <dtoa_prf+0x19e>
    1cd0:	8a 2d       	mov	r24, r10
    1cd2:	90 e0       	ldi	r25, 0x00	; 0
    1cd4:	01 96       	adiw	r24, 0x01	; 1
    1cd6:	20 e0       	ldi	r18, 0x00	; 0
    1cd8:	30 e0       	ldi	r19, 0x00	; 0
    1cda:	aa 23       	and	r26, r26
    1cdc:	11 f0       	breq	.+4      	; 0x1ce2 <dtoa_prf+0x1aa>
    1cde:	21 e0       	ldi	r18, 0x01	; 1
    1ce0:	30 e0       	ldi	r19, 0x00	; 0
    1ce2:	24 0f       	add	r18, r20
    1ce4:	35 1f       	adc	r19, r21
    1ce6:	28 0f       	add	r18, r24
    1ce8:	39 1f       	adc	r19, r25
    1cea:	81 2f       	mov	r24, r17
    1cec:	90 e0       	ldi	r25, 0x00	; 0
    1cee:	28 17       	cp	r18, r24
    1cf0:	39 07       	cpc	r19, r25
    1cf2:	14 f0       	brlt	.+4      	; 0x1cf8 <dtoa_prf+0x1c0>
    1cf4:	20 e0       	ldi	r18, 0x00	; 0
    1cf6:	02 c0       	rjmp	.+4      	; 0x1cfc <dtoa_prf+0x1c4>
    1cf8:	12 1b       	sub	r17, r18
    1cfa:	21 2f       	mov	r18, r17
    1cfc:	4b 2d       	mov	r20, r11
    1cfe:	50 e0       	ldi	r21, 0x00	; 0
    1d00:	ca 01       	movw	r24, r20
    1d02:	80 71       	andi	r24, 0x10	; 16
    1d04:	90 70       	andi	r25, 0x00	; 0
    1d06:	b4 fc       	sbrc	r11, 4
    1d08:	0d c0       	rjmp	.+26     	; 0x1d24 <dtoa_prf+0x1ec>
    1d0a:	b3 fc       	sbrc	r11, 3
    1d0c:	0b c0       	rjmp	.+22     	; 0x1d24 <dtoa_prf+0x1ec>
    1d0e:	f6 01       	movw	r30, r12
    1d10:	32 2f       	mov	r19, r18
    1d12:	40 e2       	ldi	r20, 0x20	; 32
    1d14:	02 c0       	rjmp	.+4      	; 0x1d1a <dtoa_prf+0x1e2>
    1d16:	41 93       	st	Z+, r20
    1d18:	31 50       	subi	r19, 0x01	; 1
    1d1a:	33 23       	and	r19, r19
    1d1c:	e1 f7       	brne	.-8      	; 0x1d16 <dtoa_prf+0x1de>
    1d1e:	c2 0e       	add	r12, r18
    1d20:	d1 1c       	adc	r13, r1
    1d22:	01 c0       	rjmp	.+2      	; 0x1d26 <dtoa_prf+0x1ee>
    1d24:	32 2f       	mov	r19, r18
    1d26:	aa 23       	and	r26, r26
    1d28:	19 f0       	breq	.+6      	; 0x1d30 <dtoa_prf+0x1f8>
    1d2a:	f6 01       	movw	r30, r12
    1d2c:	a1 93       	st	Z+, r26
    1d2e:	6f 01       	movw	r12, r30
    1d30:	89 2b       	or	r24, r25
    1d32:	11 f0       	breq	.+4      	; 0x1d38 <dtoa_prf+0x200>
    1d34:	13 2f       	mov	r17, r19
    1d36:	0a c0       	rjmp	.+20     	; 0x1d4c <dtoa_prf+0x214>
    1d38:	f6 01       	movw	r30, r12
    1d3a:	13 2f       	mov	r17, r19
    1d3c:	80 e3       	ldi	r24, 0x30	; 48
    1d3e:	02 c0       	rjmp	.+4      	; 0x1d44 <dtoa_prf+0x20c>
    1d40:	81 93       	st	Z+, r24
    1d42:	11 50       	subi	r17, 0x01	; 1
    1d44:	11 23       	and	r17, r17
    1d46:	e1 f7       	brne	.-8      	; 0x1d40 <dtoa_prf+0x208>
    1d48:	c3 0e       	add	r12, r19
    1d4a:	d1 1c       	adc	r13, r1
    1d4c:	09 2d       	mov	r16, r9
    1d4e:	06 0f       	add	r16, r22
    1d50:	ba 80       	ldd	r11, Y+2	; 0x02
    1d52:	90 e1       	ldi	r25, 0x10	; 16
    1d54:	89 2e       	mov	r8, r25
    1d56:	91 2c       	mov	r9, r1
    1d58:	8e 20       	and	r8, r14
    1d5a:	9f 20       	and	r9, r15
    1d5c:	e4 fe       	sbrs	r14, 4
    1d5e:	04 c0       	rjmp	.+8      	; 0x1d68 <dtoa_prf+0x230>
    1d60:	f1 e3       	ldi	r31, 0x31	; 49
    1d62:	bf 16       	cp	r11, r31
    1d64:	09 f4       	brne	.+2      	; 0x1d68 <dtoa_prf+0x230>
    1d66:	01 50       	subi	r16, 0x01	; 1
    1d68:	10 16       	cp	r1, r16
    1d6a:	14 f0       	brlt	.+4      	; 0x1d70 <dtoa_prf+0x238>
    1d6c:	01 e0       	ldi	r16, 0x01	; 1
    1d6e:	03 c0       	rjmp	.+6      	; 0x1d76 <dtoa_prf+0x23e>
    1d70:	09 30       	cpi	r16, 0x09	; 9
    1d72:	08 f0       	brcs	.+2      	; 0x1d76 <dtoa_prf+0x23e>
    1d74:	08 e0       	ldi	r16, 0x08	; 8
    1d76:	9b 01       	movw	r18, r22
    1d78:	77 ff       	sbrs	r23, 7
    1d7a:	02 c0       	rjmp	.+4      	; 0x1d80 <dtoa_prf+0x248>
    1d7c:	20 e0       	ldi	r18, 0x00	; 0
    1d7e:	30 e0       	ldi	r19, 0x00	; 0
    1d80:	cb 01       	movw	r24, r22
    1d82:	01 96       	adiw	r24, 0x01	; 1
    1d84:	82 1b       	sub	r24, r18
    1d86:	93 0b       	sbc	r25, r19
    1d88:	fe 01       	movw	r30, r28
    1d8a:	31 96       	adiw	r30, 0x01	; 1
    1d8c:	e8 0f       	add	r30, r24
    1d8e:	f9 1f       	adc	r31, r25
    1d90:	8e e2       	ldi	r24, 0x2E	; 46
    1d92:	f8 2e       	mov	r15, r24
    1d94:	3b 01       	movw	r6, r22
    1d96:	60 1a       	sub	r6, r16
    1d98:	71 08       	sbc	r7, r1
    1d9a:	8a 2d       	mov	r24, r10
    1d9c:	90 e0       	ldi	r25, 0x00	; 0
    1d9e:	44 27       	eor	r20, r20
    1da0:	55 27       	eor	r21, r21
    1da2:	48 1b       	sub	r20, r24
    1da4:	59 0b       	sbc	r21, r25
    1da6:	8f ef       	ldi	r24, 0xFF	; 255
    1da8:	2f 3f       	cpi	r18, 0xFF	; 255
    1daa:	38 07       	cpc	r19, r24
    1dac:	19 f4       	brne	.+6      	; 0x1db4 <dtoa_prf+0x27c>
    1dae:	d6 01       	movw	r26, r12
    1db0:	fd 92       	st	X+, r15
    1db2:	6d 01       	movw	r12, r26
    1db4:	62 17       	cp	r22, r18
    1db6:	73 07       	cpc	r23, r19
    1db8:	2c f0       	brlt	.+10     	; 0x1dc4 <dtoa_prf+0x28c>
    1dba:	62 16       	cp	r6, r18
    1dbc:	73 06       	cpc	r7, r19
    1dbe:	14 f4       	brge	.+4      	; 0x1dc4 <dtoa_prf+0x28c>
    1dc0:	80 81       	ld	r24, Z
    1dc2:	01 c0       	rjmp	.+2      	; 0x1dc6 <dtoa_prf+0x28e>
    1dc4:	80 e3       	ldi	r24, 0x30	; 48
    1dc6:	21 50       	subi	r18, 0x01	; 1
    1dc8:	30 40       	sbci	r19, 0x00	; 0
    1dca:	31 96       	adiw	r30, 0x01	; 1
    1dcc:	24 17       	cp	r18, r20
    1dce:	35 07       	cpc	r19, r21
    1dd0:	24 f0       	brlt	.+8      	; 0x1dda <dtoa_prf+0x2a2>
    1dd2:	d6 01       	movw	r26, r12
    1dd4:	8d 93       	st	X+, r24
    1dd6:	6d 01       	movw	r12, r26
    1dd8:	e6 cf       	rjmp	.-52     	; 0x1da6 <dtoa_prf+0x26e>
    1dda:	26 17       	cp	r18, r22
    1ddc:	37 07       	cpc	r19, r23
    1dde:	41 f4       	brne	.+16     	; 0x1df0 <dtoa_prf+0x2b8>
    1de0:	b5 e3       	ldi	r27, 0x35	; 53
    1de2:	bb 15       	cp	r27, r11
    1de4:	20 f0       	brcs	.+8      	; 0x1dee <dtoa_prf+0x2b6>
    1de6:	bb 16       	cp	r11, r27
    1de8:	19 f4       	brne	.+6      	; 0x1df0 <dtoa_prf+0x2b8>
    1dea:	89 28       	or	r8, r9
    1dec:	09 f4       	brne	.+2      	; 0x1df0 <dtoa_prf+0x2b8>
    1dee:	81 e3       	ldi	r24, 0x31	; 49
    1df0:	f6 01       	movw	r30, r12
    1df2:	81 93       	st	Z+, r24
    1df4:	d6 01       	movw	r26, r12
    1df6:	81 2f       	mov	r24, r17
    1df8:	90 e2       	ldi	r25, 0x20	; 32
    1dfa:	02 c0       	rjmp	.+4      	; 0x1e00 <dtoa_prf+0x2c8>
    1dfc:	9c 93       	st	X, r25
    1dfe:	81 50       	subi	r24, 0x01	; 1
    1e00:	11 96       	adiw	r26, 0x01	; 1
    1e02:	88 23       	and	r24, r24
    1e04:	d9 f7       	brne	.-10     	; 0x1dfc <dtoa_prf+0x2c4>
    1e06:	e1 0f       	add	r30, r17
    1e08:	f1 1d       	adc	r31, r1
    1e0a:	10 82       	st	Z, r1
    1e0c:	20 e0       	ldi	r18, 0x00	; 0
    1e0e:	30 e0       	ldi	r19, 0x00	; 0
    1e10:	c9 01       	movw	r24, r18
    1e12:	29 96       	adiw	r28, 0x09	; 9
    1e14:	0f b6       	in	r0, 0x3f	; 63
    1e16:	f8 94       	cli
    1e18:	de bf       	out	0x3e, r29	; 62
    1e1a:	0f be       	out	0x3f, r0	; 63
    1e1c:	cd bf       	out	0x3d, r28	; 61
    1e1e:	cf 91       	pop	r28
    1e20:	df 91       	pop	r29
    1e22:	1f 91       	pop	r17
    1e24:	0f 91       	pop	r16
    1e26:	ff 90       	pop	r15
    1e28:	ef 90       	pop	r14
    1e2a:	df 90       	pop	r13
    1e2c:	cf 90       	pop	r12
    1e2e:	bf 90       	pop	r11
    1e30:	af 90       	pop	r10
    1e32:	9f 90       	pop	r9
    1e34:	8f 90       	pop	r8
    1e36:	7f 90       	pop	r7
    1e38:	6f 90       	pop	r6
    1e3a:	08 95       	ret

00001e3c <__ftoa_engine>:
    1e3c:	28 30       	cpi	r18, 0x08	; 8
    1e3e:	08 f0       	brcs	.+2      	; 0x1e42 <__ftoa_engine+0x6>
    1e40:	27 e0       	ldi	r18, 0x07	; 7
    1e42:	33 27       	eor	r19, r19
    1e44:	da 01       	movw	r26, r20
    1e46:	99 0f       	add	r25, r25
    1e48:	31 1d       	adc	r19, r1
    1e4a:	87 fd       	sbrc	r24, 7
    1e4c:	91 60       	ori	r25, 0x01	; 1
    1e4e:	00 96       	adiw	r24, 0x00	; 0
    1e50:	61 05       	cpc	r22, r1
    1e52:	71 05       	cpc	r23, r1
    1e54:	39 f4       	brne	.+14     	; 0x1e64 <__ftoa_engine+0x28>
    1e56:	32 60       	ori	r19, 0x02	; 2
    1e58:	2e 5f       	subi	r18, 0xFE	; 254
    1e5a:	3d 93       	st	X+, r19
    1e5c:	30 e3       	ldi	r19, 0x30	; 48
    1e5e:	2a 95       	dec	r18
    1e60:	e1 f7       	brne	.-8      	; 0x1e5a <__ftoa_engine+0x1e>
    1e62:	08 95       	ret
    1e64:	9f 3f       	cpi	r25, 0xFF	; 255
    1e66:	30 f0       	brcs	.+12     	; 0x1e74 <__ftoa_engine+0x38>
    1e68:	80 38       	cpi	r24, 0x80	; 128
    1e6a:	71 05       	cpc	r23, r1
    1e6c:	61 05       	cpc	r22, r1
    1e6e:	09 f0       	breq	.+2      	; 0x1e72 <__ftoa_engine+0x36>
    1e70:	3c 5f       	subi	r19, 0xFC	; 252
    1e72:	3c 5f       	subi	r19, 0xFC	; 252
    1e74:	3d 93       	st	X+, r19
    1e76:	91 30       	cpi	r25, 0x01	; 1
    1e78:	08 f0       	brcs	.+2      	; 0x1e7c <__ftoa_engine+0x40>
    1e7a:	80 68       	ori	r24, 0x80	; 128
    1e7c:	91 1d       	adc	r25, r1
    1e7e:	df 93       	push	r29
    1e80:	cf 93       	push	r28
    1e82:	1f 93       	push	r17
    1e84:	0f 93       	push	r16
    1e86:	ff 92       	push	r15
    1e88:	ef 92       	push	r14
    1e8a:	19 2f       	mov	r17, r25
    1e8c:	98 7f       	andi	r25, 0xF8	; 248
    1e8e:	96 95       	lsr	r25
    1e90:	e9 2f       	mov	r30, r25
    1e92:	96 95       	lsr	r25
    1e94:	96 95       	lsr	r25
    1e96:	e9 0f       	add	r30, r25
    1e98:	ff 27       	eor	r31, r31
    1e9a:	e2 5f       	subi	r30, 0xF2	; 242
    1e9c:	fe 4f       	sbci	r31, 0xFE	; 254
    1e9e:	99 27       	eor	r25, r25
    1ea0:	33 27       	eor	r19, r19
    1ea2:	ee 24       	eor	r14, r14
    1ea4:	ff 24       	eor	r15, r15
    1ea6:	a7 01       	movw	r20, r14
    1ea8:	e7 01       	movw	r28, r14
    1eaa:	05 90       	lpm	r0, Z+
    1eac:	08 94       	sec
    1eae:	07 94       	ror	r0
    1eb0:	28 f4       	brcc	.+10     	; 0x1ebc <__ftoa_engine+0x80>
    1eb2:	36 0f       	add	r19, r22
    1eb4:	e7 1e       	adc	r14, r23
    1eb6:	f8 1e       	adc	r15, r24
    1eb8:	49 1f       	adc	r20, r25
    1eba:	51 1d       	adc	r21, r1
    1ebc:	66 0f       	add	r22, r22
    1ebe:	77 1f       	adc	r23, r23
    1ec0:	88 1f       	adc	r24, r24
    1ec2:	99 1f       	adc	r25, r25
    1ec4:	06 94       	lsr	r0
    1ec6:	a1 f7       	brne	.-24     	; 0x1eb0 <__ftoa_engine+0x74>
    1ec8:	05 90       	lpm	r0, Z+
    1eca:	07 94       	ror	r0
    1ecc:	28 f4       	brcc	.+10     	; 0x1ed8 <__ftoa_engine+0x9c>
    1ece:	e7 0e       	add	r14, r23
    1ed0:	f8 1e       	adc	r15, r24
    1ed2:	49 1f       	adc	r20, r25
    1ed4:	56 1f       	adc	r21, r22
    1ed6:	c1 1d       	adc	r28, r1
    1ed8:	77 0f       	add	r23, r23
    1eda:	88 1f       	adc	r24, r24
    1edc:	99 1f       	adc	r25, r25
    1ede:	66 1f       	adc	r22, r22
    1ee0:	06 94       	lsr	r0
    1ee2:	a1 f7       	brne	.-24     	; 0x1ecc <__ftoa_engine+0x90>
    1ee4:	05 90       	lpm	r0, Z+
    1ee6:	07 94       	ror	r0
    1ee8:	28 f4       	brcc	.+10     	; 0x1ef4 <__ftoa_engine+0xb8>
    1eea:	f8 0e       	add	r15, r24
    1eec:	49 1f       	adc	r20, r25
    1eee:	56 1f       	adc	r21, r22
    1ef0:	c7 1f       	adc	r28, r23
    1ef2:	d1 1d       	adc	r29, r1
    1ef4:	88 0f       	add	r24, r24
    1ef6:	99 1f       	adc	r25, r25
    1ef8:	66 1f       	adc	r22, r22
    1efa:	77 1f       	adc	r23, r23
    1efc:	06 94       	lsr	r0
    1efe:	a1 f7       	brne	.-24     	; 0x1ee8 <__ftoa_engine+0xac>
    1f00:	05 90       	lpm	r0, Z+
    1f02:	07 94       	ror	r0
    1f04:	20 f4       	brcc	.+8      	; 0x1f0e <__ftoa_engine+0xd2>
    1f06:	49 0f       	add	r20, r25
    1f08:	56 1f       	adc	r21, r22
    1f0a:	c7 1f       	adc	r28, r23
    1f0c:	d8 1f       	adc	r29, r24
    1f0e:	99 0f       	add	r25, r25
    1f10:	66 1f       	adc	r22, r22
    1f12:	77 1f       	adc	r23, r23
    1f14:	88 1f       	adc	r24, r24
    1f16:	06 94       	lsr	r0
    1f18:	a9 f7       	brne	.-22     	; 0x1f04 <__ftoa_engine+0xc8>
    1f1a:	84 91       	lpm	r24, Z+
    1f1c:	10 95       	com	r17
    1f1e:	17 70       	andi	r17, 0x07	; 7
    1f20:	41 f0       	breq	.+16     	; 0x1f32 <__ftoa_engine+0xf6>
    1f22:	d6 95       	lsr	r29
    1f24:	c7 95       	ror	r28
    1f26:	57 95       	ror	r21
    1f28:	47 95       	ror	r20
    1f2a:	f7 94       	ror	r15
    1f2c:	e7 94       	ror	r14
    1f2e:	1a 95       	dec	r17
    1f30:	c1 f7       	brne	.-16     	; 0x1f22 <__ftoa_engine+0xe6>
    1f32:	e4 eb       	ldi	r30, 0xB4	; 180
    1f34:	f0 e0       	ldi	r31, 0x00	; 0
    1f36:	68 94       	set
    1f38:	15 90       	lpm	r1, Z+
    1f3a:	15 91       	lpm	r17, Z+
    1f3c:	35 91       	lpm	r19, Z+
    1f3e:	65 91       	lpm	r22, Z+
    1f40:	95 91       	lpm	r25, Z+
    1f42:	05 90       	lpm	r0, Z+
    1f44:	7f e2       	ldi	r23, 0x2F	; 47
    1f46:	73 95       	inc	r23
    1f48:	e1 18       	sub	r14, r1
    1f4a:	f1 0a       	sbc	r15, r17
    1f4c:	43 0b       	sbc	r20, r19
    1f4e:	56 0b       	sbc	r21, r22
    1f50:	c9 0b       	sbc	r28, r25
    1f52:	d0 09       	sbc	r29, r0
    1f54:	c0 f7       	brcc	.-16     	; 0x1f46 <__ftoa_engine+0x10a>
    1f56:	e1 0c       	add	r14, r1
    1f58:	f1 1e       	adc	r15, r17
    1f5a:	43 1f       	adc	r20, r19
    1f5c:	56 1f       	adc	r21, r22
    1f5e:	c9 1f       	adc	r28, r25
    1f60:	d0 1d       	adc	r29, r0
    1f62:	7e f4       	brtc	.+30     	; 0x1f82 <__ftoa_engine+0x146>
    1f64:	70 33       	cpi	r23, 0x30	; 48
    1f66:	11 f4       	brne	.+4      	; 0x1f6c <__ftoa_engine+0x130>
    1f68:	8a 95       	dec	r24
    1f6a:	e6 cf       	rjmp	.-52     	; 0x1f38 <__ftoa_engine+0xfc>
    1f6c:	e8 94       	clt
    1f6e:	01 50       	subi	r16, 0x01	; 1
    1f70:	30 f0       	brcs	.+12     	; 0x1f7e <__ftoa_engine+0x142>
    1f72:	08 0f       	add	r16, r24
    1f74:	0a f4       	brpl	.+2      	; 0x1f78 <__ftoa_engine+0x13c>
    1f76:	00 27       	eor	r16, r16
    1f78:	02 17       	cp	r16, r18
    1f7a:	08 f4       	brcc	.+2      	; 0x1f7e <__ftoa_engine+0x142>
    1f7c:	20 2f       	mov	r18, r16
    1f7e:	23 95       	inc	r18
    1f80:	02 2f       	mov	r16, r18
    1f82:	7a 33       	cpi	r23, 0x3A	; 58
    1f84:	28 f0       	brcs	.+10     	; 0x1f90 <__ftoa_engine+0x154>
    1f86:	79 e3       	ldi	r23, 0x39	; 57
    1f88:	7d 93       	st	X+, r23
    1f8a:	2a 95       	dec	r18
    1f8c:	e9 f7       	brne	.-6      	; 0x1f88 <__ftoa_engine+0x14c>
    1f8e:	10 c0       	rjmp	.+32     	; 0x1fb0 <__ftoa_engine+0x174>
    1f90:	7d 93       	st	X+, r23
    1f92:	2a 95       	dec	r18
    1f94:	89 f6       	brne	.-94     	; 0x1f38 <__ftoa_engine+0xfc>
    1f96:	06 94       	lsr	r0
    1f98:	97 95       	ror	r25
    1f9a:	67 95       	ror	r22
    1f9c:	37 95       	ror	r19
    1f9e:	17 95       	ror	r17
    1fa0:	17 94       	ror	r1
    1fa2:	e1 18       	sub	r14, r1
    1fa4:	f1 0a       	sbc	r15, r17
    1fa6:	43 0b       	sbc	r20, r19
    1fa8:	56 0b       	sbc	r21, r22
    1faa:	c9 0b       	sbc	r28, r25
    1fac:	d0 09       	sbc	r29, r0
    1fae:	98 f0       	brcs	.+38     	; 0x1fd6 <__ftoa_engine+0x19a>
    1fb0:	23 95       	inc	r18
    1fb2:	7e 91       	ld	r23, -X
    1fb4:	73 95       	inc	r23
    1fb6:	7a 33       	cpi	r23, 0x3A	; 58
    1fb8:	08 f0       	brcs	.+2      	; 0x1fbc <__ftoa_engine+0x180>
    1fba:	70 e3       	ldi	r23, 0x30	; 48
    1fbc:	7c 93       	st	X, r23
    1fbe:	20 13       	cpse	r18, r16
    1fc0:	b8 f7       	brcc	.-18     	; 0x1fb0 <__ftoa_engine+0x174>
    1fc2:	7e 91       	ld	r23, -X
    1fc4:	70 61       	ori	r23, 0x10	; 16
    1fc6:	7d 93       	st	X+, r23
    1fc8:	30 f0       	brcs	.+12     	; 0x1fd6 <__ftoa_engine+0x19a>
    1fca:	83 95       	inc	r24
    1fcc:	71 e3       	ldi	r23, 0x31	; 49
    1fce:	7d 93       	st	X+, r23
    1fd0:	70 e3       	ldi	r23, 0x30	; 48
    1fd2:	2a 95       	dec	r18
    1fd4:	e1 f7       	brne	.-8      	; 0x1fce <__ftoa_engine+0x192>
    1fd6:	11 24       	eor	r1, r1
    1fd8:	ef 90       	pop	r14
    1fda:	ff 90       	pop	r15
    1fdc:	0f 91       	pop	r16
    1fde:	1f 91       	pop	r17
    1fe0:	cf 91       	pop	r28
    1fe2:	df 91       	pop	r29
    1fe4:	99 27       	eor	r25, r25
    1fe6:	87 fd       	sbrc	r24, 7
    1fe8:	90 95       	com	r25
    1fea:	08 95       	ret

00001fec <strrev>:
    1fec:	dc 01       	movw	r26, r24
    1fee:	fc 01       	movw	r30, r24
    1ff0:	67 2f       	mov	r22, r23
    1ff2:	71 91       	ld	r23, Z+
    1ff4:	77 23       	and	r23, r23
    1ff6:	e1 f7       	brne	.-8      	; 0x1ff0 <strrev+0x4>
    1ff8:	32 97       	sbiw	r30, 0x02	; 2
    1ffa:	04 c0       	rjmp	.+8      	; 0x2004 <strrev+0x18>
    1ffc:	7c 91       	ld	r23, X
    1ffe:	6d 93       	st	X+, r22
    2000:	70 83       	st	Z, r23
    2002:	62 91       	ld	r22, -Z
    2004:	ae 17       	cp	r26, r30
    2006:	bf 07       	cpc	r27, r31
    2008:	c8 f3       	brcs	.-14     	; 0x1ffc <strrev+0x10>
    200a:	08 95       	ret

0000200c <__udivmodhi4>:
    200c:	aa 1b       	sub	r26, r26
    200e:	bb 1b       	sub	r27, r27
    2010:	51 e1       	ldi	r21, 0x11	; 17
    2012:	07 c0       	rjmp	.+14     	; 0x2022 <__udivmodhi4_ep>

00002014 <__udivmodhi4_loop>:
    2014:	aa 1f       	adc	r26, r26
    2016:	bb 1f       	adc	r27, r27
    2018:	a6 17       	cp	r26, r22
    201a:	b7 07       	cpc	r27, r23
    201c:	10 f0       	brcs	.+4      	; 0x2022 <__udivmodhi4_ep>
    201e:	a6 1b       	sub	r26, r22
    2020:	b7 0b       	sbc	r27, r23

00002022 <__udivmodhi4_ep>:
    2022:	88 1f       	adc	r24, r24
    2024:	99 1f       	adc	r25, r25
    2026:	5a 95       	dec	r21
    2028:	a9 f7       	brne	.-22     	; 0x2014 <__udivmodhi4_loop>
    202a:	80 95       	com	r24
    202c:	90 95       	com	r25
    202e:	bc 01       	movw	r22, r24
    2030:	cd 01       	movw	r24, r26
    2032:	08 95       	ret

00002034 <_exit>:
    2034:	f8 94       	cli

00002036 <__stop_program>:
    2036:	ff cf       	rjmp	.-2      	; 0x2036 <__stop_program>
